SF:/var/www/hermes/src/acp/connection/manager.rs
FN:230,_RNvMs4_NtNtNtCs35aDzIjzncu_6hermes3acp10connection7managerNtB5_17ConnectionManager10disconnect
FN:137,_RNvMs4_NtNtNtCs35aDzIjzncu_6hermes3acp10connection7managerNtB5_17ConnectionManager14add_connection
FN:142,_RNvMs4_NtNtNtCs35aDzIjzncu_6hermes3acp10connection7managerNtB5_17ConnectionManager14get_connection
FN:152,_RNvMs4_NtNtNtCs35aDzIjzncu_6hermes3acp10connection7managerNtB5_17ConnectionManager15get_permissions
FN:249,_RNvMs4_NtNtNtCs35aDzIjzncu_6hermes3acp10connection7managerNtB5_17ConnectionManager20disconnect_assistant
FN:147,_RNvMs4_NtNtNtCs35aDzIjzncu_6hermes3acp10connection7managerNtB5_17ConnectionManager22get_current_connection
FN:113,_RNvMs4_NtNtNtCs35aDzIjzncu_6hermes3acp10connection7managerNtB5_17ConnectionManager3new
FN:160,_RNvMs4_NtNtNtCs35aDzIjzncu_6hermes3acp10connection7managerNtB5_17ConnectionManager7connect
FN:223,_RNvMs4_NtNtNtCs35aDzIjzncu_6hermes3acp10connection7managerNtB5_17ConnectionManager9close_all
FN:129,_RNvMs4_NtNtNtCs35aDzIjzncu_6hermes3acp10connection7managerNtB5_17ConnectionManager9get_agent
FN:122,_RNvMs4_NtNtNtCs35aDzIjzncu_6hermes3acp10connection7managerNtB5_17ConnectionManager9set_agent
FN:28,_RNvXNtNtNtCs35aDzIjzncu_6hermes3acp10connection7managerNtB2_8ProtocolNtNtCs4kUJL3MZFFz_4core3fmt7Display3fmt
FN:49,_RNvXs0_NtNtNtCs35aDzIjzncu_6hermes3acp10connection7managerNtB5_8ProtocolINtNtCs4kUJL3MZFFz_4core7convert4FromNtNtCsauO83Ko6oyK_5alloc6string6StringE4from
FN:68,_RNvXs1_NtNtNtCs35aDzIjzncu_6hermes3acp10connection7managerNtB5_9AssistantNtNtCs4kUJL3MZFFz_4core3fmt7Display3fmt
FN:79,_RNvXs2_NtNtNtCs35aDzIjzncu_6hermes3acp10connection7managerNtB5_9AssistantINtNtCs4kUJL3MZFFz_4core7convert4FromReE4from
FN:93,_RNvXs3_NtNtNtCs35aDzIjzncu_6hermes3acp10connection7managerNtB5_9AssistantINtNtCs4kUJL3MZFFz_4core7convert4FromNtNtCsauO83Ko6oyK_5alloc6string6StringE4from
FN:38,_RNvXs_NtNtNtCs35aDzIjzncu_6hermes3acp10connection7managerNtB4_8ProtocolINtNtCs4kUJL3MZFFz_4core7convert4FromReE4from
FN:202,_RNCNCNvMs4_NtNtNtCs35aDzIjzncu_6hermes3acp10connection7managerNtB9_17ConnectionManager7connects_00Bf_
FN:234,_RNCNvMs4_NtNtNtCs35aDzIjzncu_6hermes3acp10connection7managerNtB7_17ConnectionManager10disconnect0Bd_
FN:235,_RNCNvMs4_NtNtNtCs35aDzIjzncu_6hermes3acp10connection7managerNtB7_17ConnectionManager10disconnects_0Bd_
FN:250,_RNCNvMs4_NtNtNtCs35aDzIjzncu_6hermes3acp10connection7managerNtB7_17ConnectionManager20disconnect_assistant0Bd_
FN:258,_RNCNvMs4_NtNtNtCs35aDzIjzncu_6hermes3acp10connection7managerNtB7_17ConnectionManager20disconnect_assistants0_0Bd_
FN:265,_RNCNvMs4_NtNtNtCs35aDzIjzncu_6hermes3acp10connection7managerNtB7_17ConnectionManager20disconnect_assistants1_0Bd_
FN:271,_RNCNvMs4_NtNtNtCs35aDzIjzncu_6hermes3acp10connection7managerNtB7_17ConnectionManager20disconnect_assistants2_0Bd_
FN:256,_RNCNvMs4_NtNtNtCs35aDzIjzncu_6hermes3acp10connection7managerNtB7_17ConnectionManager20disconnect_assistants_0Bd_
FN:193,_RNCNvMs4_NtNtNtCs35aDzIjzncu_6hermes3acp10connection7managerNtB7_17ConnectionManager7connect0Bd_
FN:198,_RNCNvMs4_NtNtNtCs35aDzIjzncu_6hermes3acp10connection7managerNtB7_17ConnectionManager7connects_0Bd_
FN:306,_RNCNvNtNtNtNtCs35aDzIjzncu_6hermes3acp10connection7manager5testss_21test_protocol_display0Bb_
FN:350,_RNCNvNtNtNtNtCs35aDzIjzncu_6hermes3acp10connection7manager5testss_22test_assistant_display0Bb_
FN:323,_RNCNvNtNtNtNtCs35aDzIjzncu_6hermes3acp10connection7manager5testss_22test_protocol_from_str0Bb_
FN:303,_RNvNtNtNtNtCs35aDzIjzncu_6hermes3acp10connection7manager5testss_21test_protocol_display
FN:339,_RNvNtNtNtNtCs35aDzIjzncu_6hermes3acp10connection7manager5testss_22test_assistant_display
FN:318,_RNvNtNtNtNtCs35aDzIjzncu_6hermes3acp10connection7manager5testss_22test_protocol_from_str
FN:362,_RNvNtNtNtNtCs35aDzIjzncu_6hermes3acp10connection7manager5testss_41test_assistant_from_str_copilot_lowercase
FN:372,_RNvNtNtNtNtCs35aDzIjzncu_6hermes3acp10connection7manager5testss_41test_assistant_from_str_copilot_uppercase
FN:367,_RNvNtNtNtNtCs35aDzIjzncu_6hermes3acp10connection7manager5testss_42test_assistant_from_str_opencode_lowercase
FN:377,_RNvNtNtNtNtCs35aDzIjzncu_6hermes3acp10connection7manager5testss_46test_assistant_from_str_unknown_creates_custom
FNDA:0,_RNvMs4_NtNtNtCs35aDzIjzncu_6hermes3acp10connection7managerNtB5_17ConnectionManager10disconnect
FNDA:0,_RNvMs4_NtNtNtCs35aDzIjzncu_6hermes3acp10connection7managerNtB5_17ConnectionManager14add_connection
FNDA:0,_RNvMs4_NtNtNtCs35aDzIjzncu_6hermes3acp10connection7managerNtB5_17ConnectionManager14get_connection
FNDA:0,_RNvMs4_NtNtNtCs35aDzIjzncu_6hermes3acp10connection7managerNtB5_17ConnectionManager15get_permissions
FNDA:0,_RNvMs4_NtNtNtCs35aDzIjzncu_6hermes3acp10connection7managerNtB5_17ConnectionManager20disconnect_assistant
FNDA:0,_RNvMs4_NtNtNtCs35aDzIjzncu_6hermes3acp10connection7managerNtB5_17ConnectionManager22get_current_connection
FNDA:0,_RNvMs4_NtNtNtCs35aDzIjzncu_6hermes3acp10connection7managerNtB5_17ConnectionManager3new
FNDA:0,_RNvMs4_NtNtNtCs35aDzIjzncu_6hermes3acp10connection7managerNtB5_17ConnectionManager7connect
FNDA:0,_RNvMs4_NtNtNtCs35aDzIjzncu_6hermes3acp10connection7managerNtB5_17ConnectionManager9close_all
FNDA:0,_RNvMs4_NtNtNtCs35aDzIjzncu_6hermes3acp10connection7managerNtB5_17ConnectionManager9get_agent
FNDA:0,_RNvMs4_NtNtNtCs35aDzIjzncu_6hermes3acp10connection7managerNtB5_17ConnectionManager9set_agent
FNDA:3,_RNvXNtNtNtCs35aDzIjzncu_6hermes3acp10connection7managerNtB2_8ProtocolNtNtCs4kUJL3MZFFz_4core3fmt7Display3fmt
FNDA:0,_RNvXs0_NtNtNtCs35aDzIjzncu_6hermes3acp10connection7managerNtB5_8ProtocolINtNtCs4kUJL3MZFFz_4core7convert4FromNtNtCsauO83Ko6oyK_5alloc6string6StringE4from
FNDA:3,_RNvXs1_NtNtNtCs35aDzIjzncu_6hermes3acp10connection7managerNtB5_9AssistantNtNtCs4kUJL3MZFFz_4core3fmt7Display3fmt
FNDA:1532,_RNvXs2_NtNtNtCs35aDzIjzncu_6hermes3acp10connection7managerNtB5_9AssistantINtNtCs4kUJL3MZFFz_4core7convert4FromReE4from
FNDA:0,_RNvXs3_NtNtNtCs35aDzIjzncu_6hermes3acp10connection7managerNtB5_9AssistantINtNtCs4kUJL3MZFFz_4core7convert4FromNtNtCsauO83Ko6oyK_5alloc6string6StringE4from
FNDA:263,_RNvXs_NtNtNtCs35aDzIjzncu_6hermes3acp10connection7managerNtB4_8ProtocolINtNtCs4kUJL3MZFFz_4core7convert4FromReE4from
FNDA:0,_RNCNCNvMs4_NtNtNtCs35aDzIjzncu_6hermes3acp10connection7managerNtB9_17ConnectionManager7connects_00Bf_
FNDA:0,_RNCNvMs4_NtNtNtCs35aDzIjzncu_6hermes3acp10connection7managerNtB7_17ConnectionManager10disconnect0Bd_
FNDA:0,_RNCNvMs4_NtNtNtCs35aDzIjzncu_6hermes3acp10connection7managerNtB7_17ConnectionManager10disconnects_0Bd_
FNDA:0,_RNCNvMs4_NtNtNtCs35aDzIjzncu_6hermes3acp10connection7managerNtB7_17ConnectionManager20disconnect_assistant0Bd_
FNDA:0,_RNCNvMs4_NtNtNtCs35aDzIjzncu_6hermes3acp10connection7managerNtB7_17ConnectionManager20disconnect_assistants0_0Bd_
FNDA:0,_RNCNvMs4_NtNtNtCs35aDzIjzncu_6hermes3acp10connection7managerNtB7_17ConnectionManager20disconnect_assistants1_0Bd_
FNDA:0,_RNCNvMs4_NtNtNtCs35aDzIjzncu_6hermes3acp10connection7managerNtB7_17ConnectionManager20disconnect_assistants2_0Bd_
FNDA:0,_RNCNvMs4_NtNtNtCs35aDzIjzncu_6hermes3acp10connection7managerNtB7_17ConnectionManager20disconnect_assistants_0Bd_
FNDA:0,_RNCNvMs4_NtNtNtCs35aDzIjzncu_6hermes3acp10connection7managerNtB7_17ConnectionManager7connect0Bd_
FNDA:0,_RNCNvMs4_NtNtNtCs35aDzIjzncu_6hermes3acp10connection7managerNtB7_17ConnectionManager7connects_0Bd_
FNDA:3,_RNCNvNtNtNtNtCs35aDzIjzncu_6hermes3acp10connection7manager5testss_21test_protocol_display0Bb_
FNDA:3,_RNCNvNtNtNtNtCs35aDzIjzncu_6hermes3acp10connection7manager5testss_22test_assistant_display0Bb_
FNDA:7,_RNCNvNtNtNtNtCs35aDzIjzncu_6hermes3acp10connection7manager5testss_22test_protocol_from_str0Bb_
FNDA:1,_RNvNtNtNtNtCs35aDzIjzncu_6hermes3acp10connection7manager5testss_21test_protocol_display
FNDA:1,_RNvNtNtNtNtCs35aDzIjzncu_6hermes3acp10connection7manager5testss_22test_assistant_display
FNDA:1,_RNvNtNtNtNtCs35aDzIjzncu_6hermes3acp10connection7manager5testss_22test_protocol_from_str
FNDA:1,_RNvNtNtNtNtCs35aDzIjzncu_6hermes3acp10connection7manager5testss_41test_assistant_from_str_copilot_lowercase
FNDA:1,_RNvNtNtNtNtCs35aDzIjzncu_6hermes3acp10connection7manager5testss_41test_assistant_from_str_copilot_uppercase
FNDA:1,_RNvNtNtNtNtCs35aDzIjzncu_6hermes3acp10connection7manager5testss_42test_assistant_from_str_opencode_lowercase
FNDA:1,_RNvNtNtNtNtCs35aDzIjzncu_6hermes3acp10connection7manager5testss_46test_assistant_from_str_unknown_creates_custom
FNF:37
FNH:14
DA:28,3
DA:29,3
DA:30,1
DA:31,1
DA:32,1
DA:34,3
DA:38,263
DA:39,263
DA:40,263
DA:41,261
DA:42,259
DA:43,257
DA:45,263
DA:49,0
DA:50,0
DA:51,0
DA:68,3
DA:69,3
DA:70,1
DA:71,1
DA:72,0
DA:73,1
DA:75,3
DA:79,1532
DA:80,1532
DA:81,1532
DA:82,984
DA:83,392
DA:84,392
DA:85,392
DA:86,392
DA:87,392
DA:89,1532
DA:93,0
DA:94,0
DA:95,0
DA:113,0
DA:114,0
DA:115,0
DA:116,0
DA:117,0
DA:118,0
DA:119,0
DA:122,0
DA:123,0
DA:124,0
DA:125,0
DA:126,0
DA:129,0
DA:130,0
DA:131,0
DA:132,0
DA:133,0
DA:134,0
DA:137,0
DA:138,0
DA:139,0
DA:142,0
DA:143,0
DA:144,0
DA:147,0
DA:148,0
DA:149,0
DA:152,0
DA:153,0
DA:154,0
DA:155,0
DA:156,0
DA:157,0
DA:160,0
DA:161,0
DA:162,0
DA:163,0
DA:164,0
DA:165,0
DA:166,0
DA:167,0
DA:168,0
DA:172,0
DA:175,0
DA:176,0
DA:177,0
DA:178,0
DA:179,0
DA:180,0
DA:182,0
DA:183,0
DA:184,0
DA:185,0
DA:186,0
DA:187,0
DA:190,0
DA:191,0
DA:192,0
DA:193,0
DA:194,0
DA:195,0
DA:196,0
DA:197,0
DA:198,0
DA:199,0
DA:200,0
DA:201,0
DA:202,0
DA:204,0
DA:205,0
DA:206,0
DA:207,0
DA:208,0
DA:210,0
DA:212,0
DA:213,0
DA:214,0
DA:215,0
DA:216,0
DA:217,0
DA:220,0
DA:223,0
DA:224,0
DA:225,0
DA:226,0
DA:227,0
DA:230,0
DA:231,0
DA:232,0
DA:233,0
DA:234,0
DA:235,0
DA:236,0
DA:237,0
DA:238,0
DA:239,0
DA:241,0
DA:242,0
DA:243,0
DA:244,0
DA:246,0
DA:249,0
DA:250,0
DA:251,0
DA:252,0
DA:253,0
DA:254,0
DA:255,0
DA:256,0
DA:257,0
DA:258,0
DA:259,0
DA:260,0
DA:261,0
DA:262,0
DA:263,0
DA:264,0
DA:265,0
DA:266,0
DA:267,0
DA:268,0
DA:269,0
DA:270,0
DA:271,0
DA:272,0
DA:273,0
DA:274,0
DA:275,0
DA:276,0
DA:277,0
DA:278,0
DA:279,0
DA:303,1
DA:305,1
DA:306,3
DA:308,1
DA:309,1
DA:310,1
DA:311,1
DA:314,1
DA:315,1
DA:318,1
DA:320,1
DA:321,1
DA:323,7
DA:325,1
DA:326,1
DA:327,1
DA:328,1
DA:329,1
DA:330,1
DA:331,1
DA:332,1
DA:335,1
DA:336,1
DA:339,1
DA:341,1
DA:342,1
DA:343,1
DA:344,1
DA:345,1
DA:346,1
DA:347,1
DA:348,1
DA:350,3
DA:352,1
DA:353,1
DA:354,1
DA:355,1
DA:358,1
DA:359,1
DA:362,1
DA:363,1
DA:364,1
DA:367,1
DA:368,1
DA:369,1
DA:372,1
DA:373,1
DA:374,1
DA:377,1
DA:378,1
DA:379,1
DA:380,1
BRF:0
BRH:0
LF:238
LH:84
end_of_record
SF:/var/www/hermes/src/acp/connection/mod.rs
FN:90,_RNvMNtNtCs35aDzIjzncu_6hermes3acp10connectionNtB2_10Connection12fork_session
FN:86,_RNvMNtNtCs35aDzIjzncu_6hermes3acp10connectionNtB2_10Connection13list_sessions
FN:78,_RNvMNtNtCs35aDzIjzncu_6hermes3acp10connectionNtB2_10Connection14custom_command
FN:94,_RNvMNtNtCs35aDzIjzncu_6hermes3acp10connectionNtB2_10Connection14resume_session
FN:66,_RNvMNtNtCs35aDzIjzncu_6hermes3acp10connectionNtB2_10Connection17set_config_option
FN:98,_RNvMNtNtCs35aDzIjzncu_6hermes3acp10connectionNtB2_10Connection17set_session_model
FN:82,_RNvMNtNtCs35aDzIjzncu_6hermes3acp10connectionNtB2_10Connection19custom_notification
FN:46,_RNvMNtNtCs35aDzIjzncu_6hermes3acp10connectionNtB2_10Connection10initialize
FN:62,_RNvMNtNtCs35aDzIjzncu_6hermes3acp10connectionNtB2_10Connection12authenticate
FN:74,_RNvMNtNtCs35aDzIjzncu_6hermes3acp10connectionNtB2_10Connection12load_session
FN:50,_RNvMNtNtCs35aDzIjzncu_6hermes3acp10connectionNtB2_10Connection14create_session
FN:43,_RNvMNtNtCs35aDzIjzncu_6hermes3acp10connectionNtB2_10Connection3new
FN:38,_RNvMNtNtCs35aDzIjzncu_6hermes3acp10connectionNtB2_10Connection4send
FN:54,_RNvMNtNtCs35aDzIjzncu_6hermes3acp10connectionNtB2_10Connection6cancel
FN:58,_RNvMNtNtCs35aDzIjzncu_6hermes3acp10connectionNtB2_10Connection6prompt
FN:70,_RNvMNtNtCs35aDzIjzncu_6hermes3acp10connectionNtB2_10Connection8set_mode
FN:41,_RNCNvMNtNtCs35aDzIjzncu_6hermes3acp10connectionNtB4_10Connection4send0B8_
FN:113,_RNvNtNtNtCs35aDzIjzncu_6hermes3acp10connection5testss_26test_connection_initialize
FN:135,_RNvNtNtNtCs35aDzIjzncu_6hermes3acp10connection5testss_30test_connection_create_session
FN:121,_RNCNCNvNtNtNtCs35aDzIjzncu_6hermes3acp10connection5testss_26test_connection_initialize00Bb_
FN:143,_RNCNCNvNtNtNtCs35aDzIjzncu_6hermes3acp10connection5testss_30test_connection_create_session00Bb_
FN:113,_RNCNvNtNtNtCs35aDzIjzncu_6hermes3acp10connection5testss_26test_connection_initialize0B9_
FN:135,_RNCNvNtNtNtCs35aDzIjzncu_6hermes3acp10connection5testss_30test_connection_create_session0B9_
FNDA:0,_RNvMNtNtCs35aDzIjzncu_6hermes3acp10connectionNtB2_10Connection12fork_session
FNDA:0,_RNvMNtNtCs35aDzIjzncu_6hermes3acp10connectionNtB2_10Connection13list_sessions
FNDA:0,_RNvMNtNtCs35aDzIjzncu_6hermes3acp10connectionNtB2_10Connection14custom_command
FNDA:0,_RNvMNtNtCs35aDzIjzncu_6hermes3acp10connectionNtB2_10Connection14resume_session
FNDA:0,_RNvMNtNtCs35aDzIjzncu_6hermes3acp10connectionNtB2_10Connection17set_config_option
FNDA:0,_RNvMNtNtCs35aDzIjzncu_6hermes3acp10connectionNtB2_10Connection17set_session_model
FNDA:0,_RNvMNtNtCs35aDzIjzncu_6hermes3acp10connectionNtB2_10Connection19custom_notification
FNDA:1,_RNvMNtNtCs35aDzIjzncu_6hermes3acp10connectionNtB2_10Connection10initialize
FNDA:0,_RNvMNtNtCs35aDzIjzncu_6hermes3acp10connectionNtB2_10Connection12authenticate
FNDA:0,_RNvMNtNtCs35aDzIjzncu_6hermes3acp10connectionNtB2_10Connection12load_session
FNDA:1,_RNvMNtNtCs35aDzIjzncu_6hermes3acp10connectionNtB2_10Connection14create_session
FNDA:2,_RNvMNtNtCs35aDzIjzncu_6hermes3acp10connectionNtB2_10Connection3new
FNDA:2,_RNvMNtNtCs35aDzIjzncu_6hermes3acp10connectionNtB2_10Connection4send
FNDA:0,_RNvMNtNtCs35aDzIjzncu_6hermes3acp10connectionNtB2_10Connection6cancel
FNDA:0,_RNvMNtNtCs35aDzIjzncu_6hermes3acp10connectionNtB2_10Connection6prompt
FNDA:0,_RNvMNtNtCs35aDzIjzncu_6hermes3acp10connectionNtB2_10Connection8set_mode
FNDA:0,_RNCNvMNtNtCs35aDzIjzncu_6hermes3acp10connectionNtB4_10Connection4send0B8_
FNDA:1,_RNvNtNtNtCs35aDzIjzncu_6hermes3acp10connection5testss_26test_connection_initialize
FNDA:1,_RNvNtNtNtCs35aDzIjzncu_6hermes3acp10connection5testss_30test_connection_create_session
FNDA:1,_RNCNCNvNtNtNtCs35aDzIjzncu_6hermes3acp10connection5testss_26test_connection_initialize00Bb_
FNDA:1,_RNCNCNvNtNtNtCs35aDzIjzncu_6hermes3acp10connection5testss_30test_connection_create_session00Bb_
FNDA:1,_RNCNvNtNtNtCs35aDzIjzncu_6hermes3acp10connection5testss_26test_connection_initialize0B9_
FNDA:1,_RNCNvNtNtNtCs35aDzIjzncu_6hermes3acp10connection5testss_30test_connection_create_session0B9_
FNF:23
FNH:10
DA:38,2
DA:39,2
DA:40,2
DA:41,2
DA:42,2
DA:43,2
DA:44,2
DA:45,2
DA:46,1
DA:47,1
DA:48,1
DA:49,1
DA:50,1
DA:51,1
DA:52,1
DA:53,1
DA:54,0
DA:55,0
DA:56,0
DA:57,0
DA:58,0
DA:59,0
DA:60,0
DA:61,0
DA:62,0
DA:63,0
DA:64,0
DA:65,0
DA:66,0
DA:67,0
DA:68,0
DA:69,0
DA:70,0
DA:71,0
DA:72,0
DA:73,0
DA:74,0
DA:75,0
DA:76,0
DA:77,0
DA:78,0
DA:79,0
DA:80,0
DA:81,0
DA:82,0
DA:83,0
DA:84,0
DA:85,0
DA:86,0
DA:87,0
DA:88,0
DA:89,0
DA:90,0
DA:91,0
DA:92,0
DA:93,0
DA:94,0
DA:95,0
DA:96,0
DA:97,0
DA:98,0
DA:99,0
DA:100,0
DA:101,0
DA:113,1
DA:114,1
DA:115,1
DA:116,1
DA:119,1
DA:120,1
DA:121,1
DA:122,1
DA:123,1
DA:124,1
DA:125,1
DA:127,1
DA:128,1
DA:129,1
DA:130,1
DA:131,1
DA:132,1
DA:135,1
DA:137,1
DA:138,1
DA:140,1
DA:141,1
DA:143,1
DA:144,1
DA:145,1
DA:146,1
DA:147,1
DA:149,1
DA:150,1
DA:151,1
DA:152,1
DA:153,1
BRF:0
BRH:0
LF:106
LH:56
end_of_record
SF:/var/www/hermes/src/acp/connection/stdio.rs
FN:16,_RINvNtNtNtCs35aDzIjzncu_6hermes3acp10connection5stdio16stdio_connectionARej1_B18_EB8_
FN:16,_RINvNtNtNtCs35aDzIjzncu_6hermes3acp10connection5stdio16stdio_connectionINtNtCsauO83Ko6oyK_5alloc3vec3VecNtNtB1c_6string6StringEB1E_EB8_
FN:26,_RNCINvNtNtNtCs35aDzIjzncu_6hermes3acp10connection5stdio16stdio_connectionARej1_B1a_E0Ba_
FN:26,_RNCINvNtNtNtCs35aDzIjzncu_6hermes3acp10connection5stdio16stdio_connectionINtNtCsauO83Ko6oyK_5alloc3vec3VecNtNtB1e_6string6StringEB1G_E0Ba_
FN:35,_RNCNCNCINvNtNtNtCs35aDzIjzncu_6hermes3acp10connection5stdio16stdio_connectionARej1_B1e_E000Be_
FN:46,_RNCNCNCINvNtNtNtCs35aDzIjzncu_6hermes3acp10connection5stdio16stdio_connectionARej1_B1e_E00s0_0Be_
FN:51,_RNCNCNCINvNtNtNtCs35aDzIjzncu_6hermes3acp10connection5stdio16stdio_connectionARej1_B1e_E00s1_0Be_
FN:40,_RNCNCNCINvNtNtNtCs35aDzIjzncu_6hermes3acp10connection5stdio16stdio_connectionARej1_B1e_E00s_0Be_
FN:35,_RNCNCNCINvNtNtNtCs35aDzIjzncu_6hermes3acp10connection5stdio16stdio_connectionINtNtCsauO83Ko6oyK_5alloc3vec3VecNtNtB1i_6string6StringEB1K_E000Be_
FN:46,_RNCNCNCINvNtNtNtCs35aDzIjzncu_6hermes3acp10connection5stdio16stdio_connectionINtNtCsauO83Ko6oyK_5alloc3vec3VecNtNtB1i_6string6StringEB1K_E00s0_0Be_
FN:51,_RNCNCNCINvNtNtNtCs35aDzIjzncu_6hermes3acp10connection5stdio16stdio_connectionINtNtCsauO83Ko6oyK_5alloc3vec3VecNtNtB1i_6string6StringEB1K_E00s1_0Be_
FN:40,_RNCNCNCINvNtNtNtCs35aDzIjzncu_6hermes3acp10connection5stdio16stdio_connectionINtNtCsauO83Ko6oyK_5alloc3vec3VecNtNtB1i_6string6StringEB1K_E00s_0Be_
FN:56,_RNCNCNCNCINvNtNtNtCs35aDzIjzncu_6hermes3acp10connection5stdio16stdio_connectionARej1_B1g_E00s1_00Bg_
FN:56,_RNCNCNCNCINvNtNtNtCs35aDzIjzncu_6hermes3acp10connection5stdio16stdio_connectionINtNtCsauO83Ko6oyK_5alloc3vec3VecNtNtB1k_6string6StringEB1M_E00s1_00Bg_
FN:77,_RNCNvNtNtNtCs35aDzIjzncu_6hermes3acp10connection5stdio7connect0B9_
FN:73,_RNvNtNtNtCs35aDzIjzncu_6hermes3acp10connection5stdio7connect
FNDA:0,_RINvNtNtNtCs35aDzIjzncu_6hermes3acp10connection5stdio16stdio_connectionARej1_B18_EB8_
FNDA:0,_RINvNtNtNtCs35aDzIjzncu_6hermes3acp10connection5stdio16stdio_connectionINtNtCsauO83Ko6oyK_5alloc3vec3VecNtNtB1c_6string6StringEB1E_EB8_
FNDA:0,_RNCINvNtNtNtCs35aDzIjzncu_6hermes3acp10connection5stdio16stdio_connectionARej1_B1a_E0Ba_
FNDA:0,_RNCINvNtNtNtCs35aDzIjzncu_6hermes3acp10connection5stdio16stdio_connectionINtNtCsauO83Ko6oyK_5alloc3vec3VecNtNtB1e_6string6StringEB1G_E0Ba_
FNDA:0,_RNCNCNCINvNtNtNtCs35aDzIjzncu_6hermes3acp10connection5stdio16stdio_connectionARej1_B1e_E000Be_
FNDA:0,_RNCNCNCINvNtNtNtCs35aDzIjzncu_6hermes3acp10connection5stdio16stdio_connectionARej1_B1e_E00s0_0Be_
FNDA:0,_RNCNCNCINvNtNtNtCs35aDzIjzncu_6hermes3acp10connection5stdio16stdio_connectionARej1_B1e_E00s1_0Be_
FNDA:0,_RNCNCNCINvNtNtNtCs35aDzIjzncu_6hermes3acp10connection5stdio16stdio_connectionARej1_B1e_E00s_0Be_
FNDA:0,_RNCNCNCINvNtNtNtCs35aDzIjzncu_6hermes3acp10connection5stdio16stdio_connectionINtNtCsauO83Ko6oyK_5alloc3vec3VecNtNtB1i_6string6StringEB1K_E000Be_
FNDA:0,_RNCNCNCINvNtNtNtCs35aDzIjzncu_6hermes3acp10connection5stdio16stdio_connectionINtNtCsauO83Ko6oyK_5alloc3vec3VecNtNtB1i_6string6StringEB1K_E00s0_0Be_
FNDA:0,_RNCNCNCINvNtNtNtCs35aDzIjzncu_6hermes3acp10connection5stdio16stdio_connectionINtNtCsauO83Ko6oyK_5alloc3vec3VecNtNtB1i_6string6StringEB1K_E00s1_0Be_
FNDA:0,_RNCNCNCINvNtNtNtCs35aDzIjzncu_6hermes3acp10connection5stdio16stdio_connectionINtNtCsauO83Ko6oyK_5alloc3vec3VecNtNtB1i_6string6StringEB1K_E00s_0Be_
FNDA:0,_RNCNCNCNCINvNtNtNtCs35aDzIjzncu_6hermes3acp10connection5stdio16stdio_connectionARej1_B1g_E00s1_00Bg_
FNDA:0,_RNCNCNCNCINvNtNtNtCs35aDzIjzncu_6hermes3acp10connection5stdio16stdio_connectionINtNtCsauO83Ko6oyK_5alloc3vec3VecNtNtB1k_6string6StringEB1M_E00s1_00Bg_
FNDA:0,_RNCNvNtNtNtCs35aDzIjzncu_6hermes3acp10connection5stdio7connect0B9_
FNDA:0,_RNvNtNtNtCs35aDzIjzncu_6hermes3acp10connection5stdio7connect
FNF:9
FNH:0
DA:16,0
DA:17,0
DA:18,0
DA:19,0
DA:20,0
DA:21,0
DA:22,0
DA:23,0
DA:24,0
DA:25,0
DA:26,0
DA:35,0
DA:40,0
DA:46,0
DA:51,0
DA:52,0
DA:53,0
DA:54,0
DA:55,0
DA:56,0
DA:57,0
DA:58,0
DA:61,0
DA:63,0
DA:64,0
DA:70,0
DA:73,0
DA:74,0
DA:75,0
DA:76,0
DA:77,0
DA:96,0
BRF:0
BRH:0
LF:33
LH:0
end_of_record
SF:/var/www/hermes/src/acp/error.rs
FN:33,_RNvXININtNtCs35aDzIjzncu_6hermes3acp5errors0_0pENtB5_5ErrorINtNtCs4kUJL3MZFFz_4core7convert4FromINtNtNtCsaa59N1qzrfe_3std4sync4mpsc9SendErrorpEE4fromB9_
FN:61,_RNvXININtNtCs35aDzIjzncu_6hermes3acp5errors4_0pENtB5_5ErrorINtNtCs4kUJL3MZFFz_4core7convert4FromINtNtNtCsaa59N1qzrfe_3std4sync6poison11PoisonErrorpEE4fromB9_
FN:73,_RNvXs6_NtNtCs35aDzIjzncu_6hermes3acp5errorNtB5_5ErrorINtNtCs4kUJL3MZFFz_4core7convert4FromNtNtCsfu0yb8uwywH_8nvim_oxi5error5ErrorE4from
FN:17,_RNvXNtNtCs35aDzIjzncu_6hermes3acp5errorNtB2_5ErrorNtNtCs4kUJL3MZFFz_4core3fmt7Display3fmt
FN:55,_RNvXs3_NtNtCs35aDzIjzncu_6hermes3acp5errorNtB5_5ErrorINtNtCs4kUJL3MZFFz_4core7convert4FromNtNtCs4yJtZWcHHPS_28agent_client_protocol_schema5error5ErrorE4from
FN:67,_RNvXs5_NtNtCs35aDzIjzncu_6hermes3acp5errorNtB5_5ErrorINtNtCs4kUJL3MZFFz_4core7convert4FromNtNtCs2NGirYq1Gaa_10serde_json5error5ErrorE4from
FN:39,_RNvXs1_NtNtCs35aDzIjzncu_6hermes3acp5errorNtNtCs4yJtZWcHHPS_28agent_client_protocol_schema5error5ErrorINtNtCs4kUJL3MZFFz_4core7convert4FromNtB5_5ErrorE4from
FN:49,_RNvXs2_NtNtCs35aDzIjzncu_6hermes3acp5errorNtNtCs1G52j7fviBR_15nvim_oxi_luajit5error5ErrorINtNtCs4kUJL3MZFFz_4core7convert4FromNtB5_5ErrorE4from
FN:79,_RNvXs7_NtNtCs35aDzIjzncu_6hermes3acp5errorNtNtCsfu0yb8uwywH_8nvim_oxi5error5ErrorINtNtCs4kUJL3MZFFz_4core7convert4FromNtB5_5ErrorE4from
FNDA:0,_RNvXININtNtCs35aDzIjzncu_6hermes3acp5errors0_0pENtB5_5ErrorINtNtCs4kUJL3MZFFz_4core7convert4FromINtNtNtCsaa59N1qzrfe_3std4sync4mpsc9SendErrorpEE4fromB9_
FNDA:0,_RNvXININtNtCs35aDzIjzncu_6hermes3acp5errors4_0pENtB5_5ErrorINtNtCs4kUJL3MZFFz_4core7convert4FromINtNtNtCsaa59N1qzrfe_3std4sync6poison11PoisonErrorpEE4fromB9_
FNDA:0,_RNvXs6_NtNtCs35aDzIjzncu_6hermes3acp5errorNtB5_5ErrorINtNtCs4kUJL3MZFFz_4core7convert4FromNtNtCsfu0yb8uwywH_8nvim_oxi5error5ErrorE4from
FNDA:1,_RNvXNtNtCs35aDzIjzncu_6hermes3acp5errorNtB2_5ErrorNtNtCs4kUJL3MZFFz_4core3fmt7Display3fmt
FNDA:0,_RNvXs3_NtNtCs35aDzIjzncu_6hermes3acp5errorNtB5_5ErrorINtNtCs4kUJL3MZFFz_4core7convert4FromNtNtCs4yJtZWcHHPS_28agent_client_protocol_schema5error5ErrorE4from
FNDA:0,_RNvXs5_NtNtCs35aDzIjzncu_6hermes3acp5errorNtB5_5ErrorINtNtCs4kUJL3MZFFz_4core7convert4FromNtNtCs2NGirYq1Gaa_10serde_json5error5ErrorE4from
FNDA:0,_RNvXs1_NtNtCs35aDzIjzncu_6hermes3acp5errorNtNtCs4yJtZWcHHPS_28agent_client_protocol_schema5error5ErrorINtNtCs4kUJL3MZFFz_4core7convert4FromNtB5_5ErrorE4from
FNDA:0,_RNvXs2_NtNtCs35aDzIjzncu_6hermes3acp5errorNtNtCs1G52j7fviBR_15nvim_oxi_luajit5error5ErrorINtNtCs4kUJL3MZFFz_4core7convert4FromNtB5_5ErrorE4from
FNDA:0,_RNvXs7_NtNtCs35aDzIjzncu_6hermes3acp5errorNtNtCsfu0yb8uwywH_8nvim_oxi5error5ErrorINtNtCs4kUJL3MZFFz_4core7convert4FromNtB5_5ErrorE4from
FNF:9
FNH:1
DA:17,1
DA:18,1
DA:19,0
DA:20,0
DA:21,1
DA:22,0
DA:23,0
DA:24,0
DA:27,1
DA:33,0
DA:34,0
DA:35,0
DA:39,0
DA:40,0
DA:41,0
DA:42,0
DA:43,0
DA:45,0
DA:49,0
DA:50,0
DA:51,0
DA:55,0
DA:56,0
DA:57,0
DA:61,0
DA:62,0
DA:63,0
DA:67,0
DA:68,0
DA:69,0
DA:73,0
DA:74,0
DA:75,0
DA:79,0
DA:80,0
DA:81,0
BRF:0
BRH:0
LF:36
LH:4
end_of_record
SF:/var/www/hermes/src/acp/handler/client.rs
FN:88,_RNvXNtNtNtCs35aDzIjzncu_6hermes3acp7handler6clientNtB4_7HandlerNtNtCsjqbqiIl8AHj_21agent_client_protocol6client6Client14read_text_file
FN:106,_RNvXNtNtNtCs35aDzIjzncu_6hermes3acp7handler6clientNtB4_7HandlerNtNtCsjqbqiIl8AHj_21agent_client_protocol6client6Client15create_terminal
FN:125,_RNvXNtNtNtCs35aDzIjzncu_6hermes3acp7handler6clientNtB4_7HandlerNtNtCsjqbqiIl8AHj_21agent_client_protocol6client6Client15terminal_output
FN:70,_RNvXNtNtNtCs35aDzIjzncu_6hermes3acp7handler6clientNtB4_7HandlerNtNtCsjqbqiIl8AHj_21agent_client_protocol6client6Client15write_text_file
FN:207,_RNvXNtNtNtCs35aDzIjzncu_6hermes3acp7handler6clientNtB4_7HandlerNtNtCsjqbqiIl8AHj_21agent_client_protocol6client6Client16release_terminal
FN:21,_RNvXNtNtNtCs35aDzIjzncu_6hermes3acp7handler6clientNtB4_7HandlerNtNtCsjqbqiIl8AHj_21agent_client_protocol6client6Client18request_permission
FN:45,_RNvXNtNtNtCs35aDzIjzncu_6hermes3acp7handler6clientNtB4_7HandlerNtNtCsjqbqiIl8AHj_21agent_client_protocol6client6Client20session_notification
FN:185,_RNvXNtNtNtCs35aDzIjzncu_6hermes3acp7handler6clientNtB4_7HandlerNtNtCsjqbqiIl8AHj_21agent_client_protocol6client6Client21kill_terminal_command
FN:147,_RNvXNtNtNtCs35aDzIjzncu_6hermes3acp7handler6clientNtB4_7HandlerNtNtCsjqbqiIl8AHj_21agent_client_protocol6client6Client22wait_for_terminal_exit
FN:100,_RNCNCNvXNtNtNtCs35aDzIjzncu_6hermes3acp7handler6clientNtB8_7HandlerNtNtCsjqbqiIl8AHj_21agent_client_protocol6client6Client14read_text_file00Bc_
FN:118,_RNCNCNvXNtNtNtCs35aDzIjzncu_6hermes3acp7handler6clientNtB8_7HandlerNtNtCsjqbqiIl8AHj_21agent_client_protocol6client6Client15create_terminal00Bc_
FN:137,_RNCNCNvXNtNtNtCs35aDzIjzncu_6hermes3acp7handler6clientNtB8_7HandlerNtNtCsjqbqiIl8AHj_21agent_client_protocol6client6Client15terminal_output00Bc_
FN:82,_RNCNCNvXNtNtNtCs35aDzIjzncu_6hermes3acp7handler6clientNtB8_7HandlerNtNtCsjqbqiIl8AHj_21agent_client_protocol6client6Client15write_text_file00Bc_
FN:219,_RNCNCNvXNtNtNtCs35aDzIjzncu_6hermes3acp7handler6clientNtB8_7HandlerNtNtCsjqbqiIl8AHj_21agent_client_protocol6client6Client16release_terminal00Bc_
FN:38,_RNCNCNvXNtNtNtCs35aDzIjzncu_6hermes3acp7handler6clientNtB8_7HandlerNtNtCsjqbqiIl8AHj_21agent_client_protocol6client6Client18request_permission00Bc_
FN:51,_RNCNCNvXNtNtNtCs35aDzIjzncu_6hermes3acp7handler6clientNtB8_7HandlerNtNtCsjqbqiIl8AHj_21agent_client_protocol6client6Client20session_notification00Bc_
FN:55,_RNCNCNvXNtNtNtCs35aDzIjzncu_6hermes3acp7handler6clientNtB8_7HandlerNtNtCsjqbqiIl8AHj_21agent_client_protocol6client6Client20session_notification0s0_0Bc_
FN:53,_RNCNCNvXNtNtNtCs35aDzIjzncu_6hermes3acp7handler6clientNtB8_7HandlerNtNtCsjqbqiIl8AHj_21agent_client_protocol6client6Client20session_notification0s_0Bc_
FN:197,_RNCNCNvXNtNtNtCs35aDzIjzncu_6hermes3acp7handler6clientNtB8_7HandlerNtNtCsjqbqiIl8AHj_21agent_client_protocol6client6Client21kill_terminal_command00Bc_
FN:161,_RNCNCNvXNtNtNtCs35aDzIjzncu_6hermes3acp7handler6clientNtB8_7HandlerNtNtCsjqbqiIl8AHj_21agent_client_protocol6client6Client22wait_for_terminal_exit00Bc_
FN:162,_RNCNCNvXNtNtNtCs35aDzIjzncu_6hermes3acp7handler6clientNtB8_7HandlerNtNtCsjqbqiIl8AHj_21agent_client_protocol6client6Client22wait_for_terminal_exit0s_0Bc_
FNDA:0,_RNvXNtNtNtCs35aDzIjzncu_6hermes3acp7handler6clientNtB4_7HandlerNtNtCsjqbqiIl8AHj_21agent_client_protocol6client6Client14read_text_file
FNDA:0,_RNvXNtNtNtCs35aDzIjzncu_6hermes3acp7handler6clientNtB4_7HandlerNtNtCsjqbqiIl8AHj_21agent_client_protocol6client6Client15create_terminal
FNDA:0,_RNvXNtNtNtCs35aDzIjzncu_6hermes3acp7handler6clientNtB4_7HandlerNtNtCsjqbqiIl8AHj_21agent_client_protocol6client6Client15terminal_output
FNDA:0,_RNvXNtNtNtCs35aDzIjzncu_6hermes3acp7handler6clientNtB4_7HandlerNtNtCsjqbqiIl8AHj_21agent_client_protocol6client6Client15write_text_file
FNDA:0,_RNvXNtNtNtCs35aDzIjzncu_6hermes3acp7handler6clientNtB4_7HandlerNtNtCsjqbqiIl8AHj_21agent_client_protocol6client6Client16release_terminal
FNDA:0,_RNvXNtNtNtCs35aDzIjzncu_6hermes3acp7handler6clientNtB4_7HandlerNtNtCsjqbqiIl8AHj_21agent_client_protocol6client6Client18request_permission
FNDA:0,_RNvXNtNtNtCs35aDzIjzncu_6hermes3acp7handler6clientNtB4_7HandlerNtNtCsjqbqiIl8AHj_21agent_client_protocol6client6Client20session_notification
FNDA:0,_RNvXNtNtNtCs35aDzIjzncu_6hermes3acp7handler6clientNtB4_7HandlerNtNtCsjqbqiIl8AHj_21agent_client_protocol6client6Client21kill_terminal_command
FNDA:0,_RNvXNtNtNtCs35aDzIjzncu_6hermes3acp7handler6clientNtB4_7HandlerNtNtCsjqbqiIl8AHj_21agent_client_protocol6client6Client22wait_for_terminal_exit
FNDA:0,_RNCNCNvXNtNtNtCs35aDzIjzncu_6hermes3acp7handler6clientNtB8_7HandlerNtNtCsjqbqiIl8AHj_21agent_client_protocol6client6Client14read_text_file00Bc_
FNDA:0,_RNCNCNvXNtNtNtCs35aDzIjzncu_6hermes3acp7handler6clientNtB8_7HandlerNtNtCsjqbqiIl8AHj_21agent_client_protocol6client6Client15create_terminal00Bc_
FNDA:0,_RNCNCNvXNtNtNtCs35aDzIjzncu_6hermes3acp7handler6clientNtB8_7HandlerNtNtCsjqbqiIl8AHj_21agent_client_protocol6client6Client15terminal_output00Bc_
FNDA:0,_RNCNCNvXNtNtNtCs35aDzIjzncu_6hermes3acp7handler6clientNtB8_7HandlerNtNtCsjqbqiIl8AHj_21agent_client_protocol6client6Client15write_text_file00Bc_
FNDA:0,_RNCNCNvXNtNtNtCs35aDzIjzncu_6hermes3acp7handler6clientNtB8_7HandlerNtNtCsjqbqiIl8AHj_21agent_client_protocol6client6Client16release_terminal00Bc_
FNDA:0,_RNCNCNvXNtNtNtCs35aDzIjzncu_6hermes3acp7handler6clientNtB8_7HandlerNtNtCsjqbqiIl8AHj_21agent_client_protocol6client6Client18request_permission00Bc_
FNDA:0,_RNCNCNvXNtNtNtCs35aDzIjzncu_6hermes3acp7handler6clientNtB8_7HandlerNtNtCsjqbqiIl8AHj_21agent_client_protocol6client6Client20session_notification00Bc_
FNDA:0,_RNCNCNvXNtNtNtCs35aDzIjzncu_6hermes3acp7handler6clientNtB8_7HandlerNtNtCsjqbqiIl8AHj_21agent_client_protocol6client6Client20session_notification0s0_0Bc_
FNDA:0,_RNCNCNvXNtNtNtCs35aDzIjzncu_6hermes3acp7handler6clientNtB8_7HandlerNtNtCsjqbqiIl8AHj_21agent_client_protocol6client6Client20session_notification0s_0Bc_
FNDA:0,_RNCNCNvXNtNtNtCs35aDzIjzncu_6hermes3acp7handler6clientNtB8_7HandlerNtNtCsjqbqiIl8AHj_21agent_client_protocol6client6Client21kill_terminal_command00Bc_
FNDA:0,_RNCNCNvXNtNtNtCs35aDzIjzncu_6hermes3acp7handler6clientNtB8_7HandlerNtNtCsjqbqiIl8AHj_21agent_client_protocol6client6Client22wait_for_terminal_exit00Bc_
FNDA:0,_RNCNCNvXNtNtNtCs35aDzIjzncu_6hermes3acp7handler6clientNtB8_7HandlerNtNtCsjqbqiIl8AHj_21agent_client_protocol6client6Client22wait_for_terminal_exit0s_0Bc_
FNF:21
FNH:0
DA:21,0
DA:38,0
DA:39,0
DA:40,0
DA:41,0
DA:43,0
DA:45,0
DA:51,0
DA:53,0
DA:55,0
DA:68,0
DA:70,0
DA:82,0
DA:83,0
DA:84,0
DA:85,0
DA:86,0
DA:88,0
DA:100,0
DA:101,0
DA:102,0
DA:103,0
DA:104,0
DA:106,0
DA:118,0
DA:119,0
DA:120,0
DA:121,0
DA:122,0
DA:125,0
DA:137,0
DA:138,0
DA:139,0
DA:140,0
DA:141,0
DA:147,0
DA:161,0
DA:162,0
DA:164,0
DA:165,0
DA:166,0
DA:167,0
DA:169,0
DA:170,0
DA:171,0
DA:172,0
DA:173,0
DA:174,0
DA:175,0
DA:177,0
DA:179,0
DA:180,0
DA:185,0
DA:197,0
DA:198,0
DA:199,0
DA:200,0
DA:201,0
DA:207,0
DA:219,0
DA:220,0
DA:221,0
DA:222,0
DA:223,0
BRF:0
BRH:0
LF:64
LH:0
end_of_record
SF:/var/www/hermes/src/acp/handler/message.rs
FN:17,_RNvNtNtNtCs35aDzIjzncu_6hermes3acp7handler7message14handle_request
FN:22,_RNCNvNtNtNtCs35aDzIjzncu_6hermes3acp7handler7message14handle_request0B9_
FNDA:0,_RNvNtNtNtCs35aDzIjzncu_6hermes3acp7handler7message14handle_request
FNDA:0,_RNCNvNtNtNtCs35aDzIjzncu_6hermes3acp7handler7message14handle_request0B9_
FNF:2
FNH:0
DA:17,0
DA:18,0
DA:19,0
DA:20,0
DA:21,0
DA:22,0
DA:83,0
BRF:0
BRH:0
LF:8
LH:0
end_of_record
SF:/var/www/hermes/src/acp/handler/mod.rs
FN:135,_RNCNvMNtNtCs35aDzIjzncu_6hermes3acp7handlerNtB4_7Handler9get_agent0B8_
FN:135,_RNvMNtNtCs35aDzIjzncu_6hermes3acp7handlerNtB2_7Handler9get_agent
FN:143,_RNvMNtNtCs35aDzIjzncu_6hermes3acp7handlerNtB2_7Handler14set_agent_info
FN:127,_RNvMNtNtCs35aDzIjzncu_6hermes3acp7handlerNtB2_7Handler19can_access_terminal
FN:154,_RNvMNtNtCs35aDzIjzncu_6hermes3acp7handlerNtB2_7Handler23can_request_permissions
FN:162,_RNvMNtNtCs35aDzIjzncu_6hermes3acp7handlerNtB2_7Handler25can_receive_notifications
FN:119,_RNvMNtNtCs35aDzIjzncu_6hermes3acp7handlerNtB2_7Handler8can_read
FN:111,_RNvMNtNtCs35aDzIjzncu_6hermes3acp7handlerNtB2_7Handler9can_write
FN:179,_RINvMNtNtCs35aDzIjzncu_6hermes3acp7handlerNtB3_7Handler16send_autocommandNtNtNtB7_4nvim12autocommands8CommandsNtNtCs2NGirYq1Gaa_10serde_json5value5ValueEB7_
FN:179,_RINvMNtNtCs35aDzIjzncu_6hermes3acp7handlerNtB3_7Handler16send_autocommandNtNtNtB7_4nvim12autocommands8CommandsNtNtCs4yJtZWcHHPS_28agent_client_protocol_schema5agent14PromptResponseEB7_
FN:179,_RINvMNtNtCs35aDzIjzncu_6hermes3acp7handlerNtB3_7Handler16send_autocommandNtNtNtB7_4nvim12autocommands8CommandsNtNtCs4yJtZWcHHPS_28agent_client_protocol_schema5agent18NewSessionResponseEB7_
FN:179,_RINvMNtNtCs35aDzIjzncu_6hermes3acp7handlerNtB3_7Handler16send_autocommandNtNtNtB7_4nvim12autocommands8CommandsNtNtCs4yJtZWcHHPS_28agent_client_protocol_schema5agent19ForkSessionResponseEB7_
FN:179,_RINvMNtNtCs35aDzIjzncu_6hermes3acp7handlerNtB3_7Handler16send_autocommandNtNtNtB7_4nvim12autocommands8CommandsNtNtCs4yJtZWcHHPS_28agent_client_protocol_schema5agent19LoadSessionResponseEB7_
FN:179,_RINvMNtNtCs35aDzIjzncu_6hermes3acp7handlerNtB3_7Handler16send_autocommandNtNtNtB7_4nvim12autocommands8CommandsNtNtCs4yJtZWcHHPS_28agent_client_protocol_schema5agent20AuthenticateResponseEB7_
FN:179,_RINvMNtNtCs35aDzIjzncu_6hermes3acp7handlerNtB3_7Handler16send_autocommandNtNtNtB7_4nvim12autocommands8CommandsNtNtCs4yJtZWcHHPS_28agent_client_protocol_schema5agent20ListSessionsResponseEB7_
FN:179,_RINvMNtNtCs35aDzIjzncu_6hermes3acp7handlerNtB3_7Handler16send_autocommandNtNtNtB7_4nvim12autocommands8CommandsNtNtCs4yJtZWcHHPS_28agent_client_protocol_schema5agent21ResumeSessionResponseEB7_
FN:179,_RINvMNtNtCs35aDzIjzncu_6hermes3acp7handlerNtB3_7Handler16send_autocommandNtNtNtB7_4nvim12autocommands8CommandsNtNtCs4yJtZWcHHPS_28agent_client_protocol_schema5agent22SetSessionModeResponseEB7_
FN:179,_RINvMNtNtCs35aDzIjzncu_6hermes3acp7handlerNtB3_7Handler16send_autocommandNtNtNtB7_4nvim12autocommands8CommandsNtNtCs4yJtZWcHHPS_28agent_client_protocol_schema5agent23SetSessionModelResponseEB7_
FN:179,_RINvMNtNtCs35aDzIjzncu_6hermes3acp7handlerNtB3_7Handler16send_autocommandNtNtNtB7_4nvim12autocommands8CommandsNtNtCs4yJtZWcHHPS_28agent_client_protocol_schema5agent30SetSessionConfigOptionResponseEB7_
FN:179,_RINvMNtNtCs35aDzIjzncu_6hermes3acp7handlerNtB3_7Handler16send_autocommandNtNtNtB7_4nvim12autocommands8CommandsNtNtCs4yJtZWcHHPS_28agent_client_protocol_schema6client19ReadTextFileRequestEB7_
FN:179,_RINvMNtNtCs35aDzIjzncu_6hermes3acp7handlerNtB3_7Handler16send_autocommandNtNtNtB7_4nvim12autocommands8CommandsNtNtCs4yJtZWcHHPS_28agent_client_protocol_schema6client19SessionNotificationEB7_
FN:179,_RINvMNtNtCs35aDzIjzncu_6hermes3acp7handlerNtB3_7Handler16send_autocommandNtNtNtB7_4nvim12autocommands8CommandsNtNtCs4yJtZWcHHPS_28agent_client_protocol_schema6client20WriteTextFileRequestEB7_
FN:179,_RINvMNtNtCs35aDzIjzncu_6hermes3acp7handlerNtB3_7Handler16send_autocommandNtNtNtB7_4nvim12autocommands8CommandsNtNtCs4yJtZWcHHPS_28agent_client_protocol_schema6client21CreateTerminalRequestEB7_
FN:179,_RINvMNtNtCs35aDzIjzncu_6hermes3acp7handlerNtB3_7Handler16send_autocommandNtNtNtB7_4nvim12autocommands8CommandsNtNtCs4yJtZWcHHPS_28agent_client_protocol_schema6client21TerminalOutputRequestEB7_
FN:179,_RINvMNtNtCs35aDzIjzncu_6hermes3acp7handlerNtB3_7Handler16send_autocommandNtNtNtB7_4nvim12autocommands8CommandsNtNtCs4yJtZWcHHPS_28agent_client_protocol_schema6client22ReleaseTerminalRequestEB7_
FN:179,_RINvMNtNtCs35aDzIjzncu_6hermes3acp7handlerNtB3_7Handler16send_autocommandNtNtNtB7_4nvim12autocommands8CommandsNtNtCs4yJtZWcHHPS_28agent_client_protocol_schema6client24RequestPermissionRequestEB7_
FN:179,_RINvMNtNtCs35aDzIjzncu_6hermes3acp7handlerNtB3_7Handler16send_autocommandNtNtNtB7_4nvim12autocommands8CommandsNtNtCs4yJtZWcHHPS_28agent_client_protocol_schema6client26KillTerminalCommandRequestEB7_
FN:179,_RINvMNtNtCs35aDzIjzncu_6hermes3acp7handlerNtB3_7Handler16send_autocommandNtNtNtB7_4nvim12autocommands8CommandsNtNtCs4yJtZWcHHPS_28agent_client_protocol_schema6client26WaitForTerminalExitRequestEB7_
FN:87,_RINvMNtNtCs35aDzIjzncu_6hermes3acp7handlerNtB3_7Handler17listener_attachedNtNtCsauO83Ko6oyK_5alloc6string6StringEB7_
FN:170,_RINvMNtNtCs35aDzIjzncu_6hermes3acp7handlerNtB3_7Handler19execute_autocommandNtNtNtB7_4nvim12autocommands8CommandsNtNtCs2NGirYq1Gaa_10serde_json5value5ValueEB7_
FN:170,_RINvMNtNtCs35aDzIjzncu_6hermes3acp7handlerNtB3_7Handler19execute_autocommandNtNtNtB7_4nvim12autocommands8CommandsNtNtCs4yJtZWcHHPS_28agent_client_protocol_schema5agent14PromptResponseEB7_
FN:170,_RINvMNtNtCs35aDzIjzncu_6hermes3acp7handlerNtB3_7Handler19execute_autocommandNtNtNtB7_4nvim12autocommands8CommandsNtNtCs4yJtZWcHHPS_28agent_client_protocol_schema5agent18NewSessionResponseEB7_
FN:170,_RINvMNtNtCs35aDzIjzncu_6hermes3acp7handlerNtB3_7Handler19execute_autocommandNtNtNtB7_4nvim12autocommands8CommandsNtNtCs4yJtZWcHHPS_28agent_client_protocol_schema5agent19ForkSessionResponseEB7_
FN:170,_RINvMNtNtCs35aDzIjzncu_6hermes3acp7handlerNtB3_7Handler19execute_autocommandNtNtNtB7_4nvim12autocommands8CommandsNtNtCs4yJtZWcHHPS_28agent_client_protocol_schema5agent19LoadSessionResponseEB7_
FN:170,_RINvMNtNtCs35aDzIjzncu_6hermes3acp7handlerNtB3_7Handler19execute_autocommandNtNtNtB7_4nvim12autocommands8CommandsNtNtCs4yJtZWcHHPS_28agent_client_protocol_schema5agent20AuthenticateResponseEB7_
FN:170,_RINvMNtNtCs35aDzIjzncu_6hermes3acp7handlerNtB3_7Handler19execute_autocommandNtNtNtB7_4nvim12autocommands8CommandsNtNtCs4yJtZWcHHPS_28agent_client_protocol_schema5agent20ListSessionsResponseEB7_
FN:170,_RINvMNtNtCs35aDzIjzncu_6hermes3acp7handlerNtB3_7Handler19execute_autocommandNtNtNtB7_4nvim12autocommands8CommandsNtNtCs4yJtZWcHHPS_28agent_client_protocol_schema5agent21ResumeSessionResponseEB7_
FN:170,_RINvMNtNtCs35aDzIjzncu_6hermes3acp7handlerNtB3_7Handler19execute_autocommandNtNtNtB7_4nvim12autocommands8CommandsNtNtCs4yJtZWcHHPS_28agent_client_protocol_schema5agent22SetSessionModeResponseEB7_
FN:170,_RINvMNtNtCs35aDzIjzncu_6hermes3acp7handlerNtB3_7Handler19execute_autocommandNtNtNtB7_4nvim12autocommands8CommandsNtNtCs4yJtZWcHHPS_28agent_client_protocol_schema5agent23SetSessionModelResponseEB7_
FN:170,_RINvMNtNtCs35aDzIjzncu_6hermes3acp7handlerNtB3_7Handler19execute_autocommandNtNtNtB7_4nvim12autocommands8CommandsNtNtCs4yJtZWcHHPS_28agent_client_protocol_schema5agent30SetSessionConfigOptionResponseEB7_
FN:170,_RINvMNtNtCs35aDzIjzncu_6hermes3acp7handlerNtB3_7Handler19execute_autocommandNtNtNtB7_4nvim12autocommands8CommandsNtNtCs4yJtZWcHHPS_28agent_client_protocol_schema6client19SessionNotificationEB7_
FN:197,_RINvMNtNtCs35aDzIjzncu_6hermes3acp7handlerNtB3_7Handler27execute_autocommand_requestNtNtNtB7_4nvim12autocommands8CommandsNtNtCs4yJtZWcHHPS_28agent_client_protocol_schema6client19ReadTextFileRequestEB7_
FN:197,_RINvMNtNtCs35aDzIjzncu_6hermes3acp7handlerNtB3_7Handler27execute_autocommand_requestNtNtNtB7_4nvim12autocommands8CommandsNtNtCs4yJtZWcHHPS_28agent_client_protocol_schema6client20WriteTextFileRequestEB7_
FN:197,_RINvMNtNtCs35aDzIjzncu_6hermes3acp7handlerNtB3_7Handler27execute_autocommand_requestNtNtNtB7_4nvim12autocommands8CommandsNtNtCs4yJtZWcHHPS_28agent_client_protocol_schema6client21CreateTerminalRequestEB7_
FN:197,_RINvMNtNtCs35aDzIjzncu_6hermes3acp7handlerNtB3_7Handler27execute_autocommand_requestNtNtNtB7_4nvim12autocommands8CommandsNtNtCs4yJtZWcHHPS_28agent_client_protocol_schema6client21TerminalOutputRequestEB7_
FN:197,_RINvMNtNtCs35aDzIjzncu_6hermes3acp7handlerNtB3_7Handler27execute_autocommand_requestNtNtNtB7_4nvim12autocommands8CommandsNtNtCs4yJtZWcHHPS_28agent_client_protocol_schema6client22ReleaseTerminalRequestEB7_
FN:197,_RINvMNtNtCs35aDzIjzncu_6hermes3acp7handlerNtB3_7Handler27execute_autocommand_requestNtNtNtB7_4nvim12autocommands8CommandsNtNtCs4yJtZWcHHPS_28agent_client_protocol_schema6client24RequestPermissionRequestEB7_
FN:197,_RINvMNtNtCs35aDzIjzncu_6hermes3acp7handlerNtB3_7Handler27execute_autocommand_requestNtNtNtB7_4nvim12autocommands8CommandsNtNtCs4yJtZWcHHPS_28agent_client_protocol_schema6client26KillTerminalCommandRequestEB7_
FN:197,_RINvMNtNtCs35aDzIjzncu_6hermes3acp7handlerNtB3_7Handler27execute_autocommand_requestNtNtNtB7_4nvim12autocommands8CommandsNtNtCs4yJtZWcHHPS_28agent_client_protocol_schema6client26WaitForTerminalExitRequestEB7_
FN:29,_RINvMNtNtCs35aDzIjzncu_6hermes3acp7handlerNtB3_7Handler3newNtNtNtB7_4nvim8requests8RequestsEB7_
FN:188,_RNCINvMNtNtCs35aDzIjzncu_6hermes3acp7handlerNtB5_7Handler16send_autocommandNtNtNtB9_4nvim12autocommands8CommandsNtNtCs2NGirYq1Gaa_10serde_json5value5ValueE0B9_
FN:188,_RNCINvMNtNtCs35aDzIjzncu_6hermes3acp7handlerNtB5_7Handler16send_autocommandNtNtNtB9_4nvim12autocommands8CommandsNtNtCs4yJtZWcHHPS_28agent_client_protocol_schema5agent14PromptResponseE0B9_
FN:188,_RNCINvMNtNtCs35aDzIjzncu_6hermes3acp7handlerNtB5_7Handler16send_autocommandNtNtNtB9_4nvim12autocommands8CommandsNtNtCs4yJtZWcHHPS_28agent_client_protocol_schema5agent18NewSessionResponseE0B9_
FN:188,_RNCINvMNtNtCs35aDzIjzncu_6hermes3acp7handlerNtB5_7Handler16send_autocommandNtNtNtB9_4nvim12autocommands8CommandsNtNtCs4yJtZWcHHPS_28agent_client_protocol_schema5agent19ForkSessionResponseE0B9_
FN:188,_RNCINvMNtNtCs35aDzIjzncu_6hermes3acp7handlerNtB5_7Handler16send_autocommandNtNtNtB9_4nvim12autocommands8CommandsNtNtCs4yJtZWcHHPS_28agent_client_protocol_schema5agent19LoadSessionResponseE0B9_
FN:188,_RNCINvMNtNtCs35aDzIjzncu_6hermes3acp7handlerNtB5_7Handler16send_autocommandNtNtNtB9_4nvim12autocommands8CommandsNtNtCs4yJtZWcHHPS_28agent_client_protocol_schema5agent20AuthenticateResponseE0B9_
FN:188,_RNCINvMNtNtCs35aDzIjzncu_6hermes3acp7handlerNtB5_7Handler16send_autocommandNtNtNtB9_4nvim12autocommands8CommandsNtNtCs4yJtZWcHHPS_28agent_client_protocol_schema5agent20ListSessionsResponseE0B9_
FN:188,_RNCINvMNtNtCs35aDzIjzncu_6hermes3acp7handlerNtB5_7Handler16send_autocommandNtNtNtB9_4nvim12autocommands8CommandsNtNtCs4yJtZWcHHPS_28agent_client_protocol_schema5agent21ResumeSessionResponseE0B9_
FN:188,_RNCINvMNtNtCs35aDzIjzncu_6hermes3acp7handlerNtB5_7Handler16send_autocommandNtNtNtB9_4nvim12autocommands8CommandsNtNtCs4yJtZWcHHPS_28agent_client_protocol_schema5agent22SetSessionModeResponseE0B9_
FN:188,_RNCINvMNtNtCs35aDzIjzncu_6hermes3acp7handlerNtB5_7Handler16send_autocommandNtNtNtB9_4nvim12autocommands8CommandsNtNtCs4yJtZWcHHPS_28agent_client_protocol_schema5agent23SetSessionModelResponseE0B9_
FN:188,_RNCINvMNtNtCs35aDzIjzncu_6hermes3acp7handlerNtB5_7Handler16send_autocommandNtNtNtB9_4nvim12autocommands8CommandsNtNtCs4yJtZWcHHPS_28agent_client_protocol_schema5agent30SetSessionConfigOptionResponseE0B9_
FN:188,_RNCINvMNtNtCs35aDzIjzncu_6hermes3acp7handlerNtB5_7Handler16send_autocommandNtNtNtB9_4nvim12autocommands8CommandsNtNtCs4yJtZWcHHPS_28agent_client_protocol_schema6client19ReadTextFileRequestE0B9_
FN:188,_RNCINvMNtNtCs35aDzIjzncu_6hermes3acp7handlerNtB5_7Handler16send_autocommandNtNtNtB9_4nvim12autocommands8CommandsNtNtCs4yJtZWcHHPS_28agent_client_protocol_schema6client19SessionNotificationE0B9_
FN:188,_RNCINvMNtNtCs35aDzIjzncu_6hermes3acp7handlerNtB5_7Handler16send_autocommandNtNtNtB9_4nvim12autocommands8CommandsNtNtCs4yJtZWcHHPS_28agent_client_protocol_schema6client20WriteTextFileRequestE0B9_
FN:188,_RNCINvMNtNtCs35aDzIjzncu_6hermes3acp7handlerNtB5_7Handler16send_autocommandNtNtNtB9_4nvim12autocommands8CommandsNtNtCs4yJtZWcHHPS_28agent_client_protocol_schema6client21CreateTerminalRequestE0B9_
FN:188,_RNCINvMNtNtCs35aDzIjzncu_6hermes3acp7handlerNtB5_7Handler16send_autocommandNtNtNtB9_4nvim12autocommands8CommandsNtNtCs4yJtZWcHHPS_28agent_client_protocol_schema6client21TerminalOutputRequestE0B9_
FN:188,_RNCINvMNtNtCs35aDzIjzncu_6hermes3acp7handlerNtB5_7Handler16send_autocommandNtNtNtB9_4nvim12autocommands8CommandsNtNtCs4yJtZWcHHPS_28agent_client_protocol_schema6client22ReleaseTerminalRequestE0B9_
FN:188,_RNCINvMNtNtCs35aDzIjzncu_6hermes3acp7handlerNtB5_7Handler16send_autocommandNtNtNtB9_4nvim12autocommands8CommandsNtNtCs4yJtZWcHHPS_28agent_client_protocol_schema6client24RequestPermissionRequestE0B9_
FN:188,_RNCINvMNtNtCs35aDzIjzncu_6hermes3acp7handlerNtB5_7Handler16send_autocommandNtNtNtB9_4nvim12autocommands8CommandsNtNtCs4yJtZWcHHPS_28agent_client_protocol_schema6client26KillTerminalCommandRequestE0B9_
FN:188,_RNCINvMNtNtCs35aDzIjzncu_6hermes3acp7handlerNtB5_7Handler16send_autocommandNtNtNtB9_4nvim12autocommands8CommandsNtNtCs4yJtZWcHHPS_28agent_client_protocol_schema6client26WaitForTerminalExitRequestE0B9_
FN:102,_RNCINvMNtNtCs35aDzIjzncu_6hermes3acp7handlerNtB5_7Handler17listener_attachedNtNtCsauO83Ko6oyK_5alloc6string6StringE0B9_
FN:103,_RNCINvMNtNtCs35aDzIjzncu_6hermes3acp7handlerNtB5_7Handler17listener_attachedNtNtCsauO83Ko6oyK_5alloc6string6StringEs_0B9_
FN:174,_RNCINvMNtNtCs35aDzIjzncu_6hermes3acp7handlerNtB5_7Handler19execute_autocommandNtNtNtB9_4nvim12autocommands8CommandsNtNtCs2NGirYq1Gaa_10serde_json5value5ValueE0B9_
FN:174,_RNCINvMNtNtCs35aDzIjzncu_6hermes3acp7handlerNtB5_7Handler19execute_autocommandNtNtNtB9_4nvim12autocommands8CommandsNtNtCs4yJtZWcHHPS_28agent_client_protocol_schema5agent14PromptResponseE0B9_
FN:174,_RNCINvMNtNtCs35aDzIjzncu_6hermes3acp7handlerNtB5_7Handler19execute_autocommandNtNtNtB9_4nvim12autocommands8CommandsNtNtCs4yJtZWcHHPS_28agent_client_protocol_schema5agent18NewSessionResponseE0B9_
FN:174,_RNCINvMNtNtCs35aDzIjzncu_6hermes3acp7handlerNtB5_7Handler19execute_autocommandNtNtNtB9_4nvim12autocommands8CommandsNtNtCs4yJtZWcHHPS_28agent_client_protocol_schema5agent19ForkSessionResponseE0B9_
FN:174,_RNCINvMNtNtCs35aDzIjzncu_6hermes3acp7handlerNtB5_7Handler19execute_autocommandNtNtNtB9_4nvim12autocommands8CommandsNtNtCs4yJtZWcHHPS_28agent_client_protocol_schema5agent19LoadSessionResponseE0B9_
FN:174,_RNCINvMNtNtCs35aDzIjzncu_6hermes3acp7handlerNtB5_7Handler19execute_autocommandNtNtNtB9_4nvim12autocommands8CommandsNtNtCs4yJtZWcHHPS_28agent_client_protocol_schema5agent20AuthenticateResponseE0B9_
FN:174,_RNCINvMNtNtCs35aDzIjzncu_6hermes3acp7handlerNtB5_7Handler19execute_autocommandNtNtNtB9_4nvim12autocommands8CommandsNtNtCs4yJtZWcHHPS_28agent_client_protocol_schema5agent20ListSessionsResponseE0B9_
FN:174,_RNCINvMNtNtCs35aDzIjzncu_6hermes3acp7handlerNtB5_7Handler19execute_autocommandNtNtNtB9_4nvim12autocommands8CommandsNtNtCs4yJtZWcHHPS_28agent_client_protocol_schema5agent21ResumeSessionResponseE0B9_
FN:174,_RNCINvMNtNtCs35aDzIjzncu_6hermes3acp7handlerNtB5_7Handler19execute_autocommandNtNtNtB9_4nvim12autocommands8CommandsNtNtCs4yJtZWcHHPS_28agent_client_protocol_schema5agent22SetSessionModeResponseE0B9_
FN:174,_RNCINvMNtNtCs35aDzIjzncu_6hermes3acp7handlerNtB5_7Handler19execute_autocommandNtNtNtB9_4nvim12autocommands8CommandsNtNtCs4yJtZWcHHPS_28agent_client_protocol_schema5agent23SetSessionModelResponseE0B9_
FN:174,_RNCINvMNtNtCs35aDzIjzncu_6hermes3acp7handlerNtB5_7Handler19execute_autocommandNtNtNtB9_4nvim12autocommands8CommandsNtNtCs4yJtZWcHHPS_28agent_client_protocol_schema5agent30SetSessionConfigOptionResponseE0B9_
FN:174,_RNCINvMNtNtCs35aDzIjzncu_6hermes3acp7handlerNtB5_7Handler19execute_autocommandNtNtNtB9_4nvim12autocommands8CommandsNtNtCs4yJtZWcHHPS_28agent_client_protocol_schema6client19SessionNotificationE0B9_
FN:203,_RNCINvMNtNtCs35aDzIjzncu_6hermes3acp7handlerNtB5_7Handler27execute_autocommand_requestNtNtNtB9_4nvim12autocommands8CommandsNtNtCs4yJtZWcHHPS_28agent_client_protocol_schema6client19ReadTextFileRequestE0B9_
FN:203,_RNCINvMNtNtCs35aDzIjzncu_6hermes3acp7handlerNtB5_7Handler27execute_autocommand_requestNtNtNtB9_4nvim12autocommands8CommandsNtNtCs4yJtZWcHHPS_28agent_client_protocol_schema6client20WriteTextFileRequestE0B9_
FN:203,_RNCINvMNtNtCs35aDzIjzncu_6hermes3acp7handlerNtB5_7Handler27execute_autocommand_requestNtNtNtB9_4nvim12autocommands8CommandsNtNtCs4yJtZWcHHPS_28agent_client_protocol_schema6client21CreateTerminalRequestE0B9_
FN:203,_RNCINvMNtNtCs35aDzIjzncu_6hermes3acp7handlerNtB5_7Handler27execute_autocommand_requestNtNtNtB9_4nvim12autocommands8CommandsNtNtCs4yJtZWcHHPS_28agent_client_protocol_schema6client21TerminalOutputRequestE0B9_
FN:203,_RNCINvMNtNtCs35aDzIjzncu_6hermes3acp7handlerNtB5_7Handler27execute_autocommand_requestNtNtNtB9_4nvim12autocommands8CommandsNtNtCs4yJtZWcHHPS_28agent_client_protocol_schema6client22ReleaseTerminalRequestE0B9_
FN:203,_RNCINvMNtNtCs35aDzIjzncu_6hermes3acp7handlerNtB5_7Handler27execute_autocommand_requestNtNtNtB9_4nvim12autocommands8CommandsNtNtCs4yJtZWcHHPS_28agent_client_protocol_schema6client24RequestPermissionRequestE0B9_
FN:203,_RNCINvMNtNtCs35aDzIjzncu_6hermes3acp7handlerNtB5_7Handler27execute_autocommand_requestNtNtNtB9_4nvim12autocommands8CommandsNtNtCs4yJtZWcHHPS_28agent_client_protocol_schema6client26KillTerminalCommandRequestE0B9_
FN:203,_RNCINvMNtNtCs35aDzIjzncu_6hermes3acp7handlerNtB5_7Handler27execute_autocommand_requestNtNtNtB9_4nvim12autocommands8CommandsNtNtCs4yJtZWcHHPS_28agent_client_protocol_schema6client26WaitForTerminalExitRequestE0B9_
FN:35,_RNCINvMNtNtCs35aDzIjzncu_6hermes3acp7handlerNtB5_7Handler3newNtNtNtB9_4nvim8requests8RequestsE0B9_
FN:37,_RNCNCINvMNtNtCs35aDzIjzncu_6hermes3acp7handlerNtB7_7Handler3newNtNtNtBb_4nvim8requests8RequestsE00Bb_
FN:71,_RNCNCINvMNtNtCs35aDzIjzncu_6hermes3acp7handlerNtB7_7Handler3newNtNtNtBb_4nvim8requests8RequestsE0s_0Bb_
FN:147,_RNCNvMNtNtCs35aDzIjzncu_6hermes3acp7handlerNtB4_7Handler14set_agent_info0B8_
FN:127,_RNCNvMNtNtCs35aDzIjzncu_6hermes3acp7handlerNtB4_7Handler19can_access_terminal0B8_
FN:154,_RNCNvMNtNtCs35aDzIjzncu_6hermes3acp7handlerNtB4_7Handler23can_request_permissions0B8_
FN:162,_RNCNvMNtNtCs35aDzIjzncu_6hermes3acp7handlerNtB4_7Handler25can_receive_notifications0B8_
FN:119,_RNCNvMNtNtCs35aDzIjzncu_6hermes3acp7handlerNtB4_7Handler8can_read0B8_
FN:111,_RNCNvMNtNtCs35aDzIjzncu_6hermes3acp7handlerNtB4_7Handler9can_write0B8_
FNDA:0,_RNCNvMNtNtCs35aDzIjzncu_6hermes3acp7handlerNtB4_7Handler9get_agent0B8_
FNDA:0,_RNvMNtNtCs35aDzIjzncu_6hermes3acp7handlerNtB2_7Handler9get_agent
FNDA:0,_RNvMNtNtCs35aDzIjzncu_6hermes3acp7handlerNtB2_7Handler14set_agent_info
FNDA:0,_RNvMNtNtCs35aDzIjzncu_6hermes3acp7handlerNtB2_7Handler19can_access_terminal
FNDA:0,_RNvMNtNtCs35aDzIjzncu_6hermes3acp7handlerNtB2_7Handler23can_request_permissions
FNDA:0,_RNvMNtNtCs35aDzIjzncu_6hermes3acp7handlerNtB2_7Handler25can_receive_notifications
FNDA:0,_RNvMNtNtCs35aDzIjzncu_6hermes3acp7handlerNtB2_7Handler8can_read
FNDA:0,_RNvMNtNtCs35aDzIjzncu_6hermes3acp7handlerNtB2_7Handler9can_write
FNDA:0,_RINvMNtNtCs35aDzIjzncu_6hermes3acp7handlerNtB3_7Handler16send_autocommandNtNtNtB7_4nvim12autocommands8CommandsNtNtCs2NGirYq1Gaa_10serde_json5value5ValueEB7_
FNDA:0,_RINvMNtNtCs35aDzIjzncu_6hermes3acp7handlerNtB3_7Handler16send_autocommandNtNtNtB7_4nvim12autocommands8CommandsNtNtCs4yJtZWcHHPS_28agent_client_protocol_schema5agent14PromptResponseEB7_
FNDA:0,_RINvMNtNtCs35aDzIjzncu_6hermes3acp7handlerNtB3_7Handler16send_autocommandNtNtNtB7_4nvim12autocommands8CommandsNtNtCs4yJtZWcHHPS_28agent_client_protocol_schema5agent18NewSessionResponseEB7_
FNDA:0,_RINvMNtNtCs35aDzIjzncu_6hermes3acp7handlerNtB3_7Handler16send_autocommandNtNtNtB7_4nvim12autocommands8CommandsNtNtCs4yJtZWcHHPS_28agent_client_protocol_schema5agent19ForkSessionResponseEB7_
FNDA:0,_RINvMNtNtCs35aDzIjzncu_6hermes3acp7handlerNtB3_7Handler16send_autocommandNtNtNtB7_4nvim12autocommands8CommandsNtNtCs4yJtZWcHHPS_28agent_client_protocol_schema5agent19LoadSessionResponseEB7_
FNDA:0,_RINvMNtNtCs35aDzIjzncu_6hermes3acp7handlerNtB3_7Handler16send_autocommandNtNtNtB7_4nvim12autocommands8CommandsNtNtCs4yJtZWcHHPS_28agent_client_protocol_schema5agent20AuthenticateResponseEB7_
FNDA:0,_RINvMNtNtCs35aDzIjzncu_6hermes3acp7handlerNtB3_7Handler16send_autocommandNtNtNtB7_4nvim12autocommands8CommandsNtNtCs4yJtZWcHHPS_28agent_client_protocol_schema5agent20ListSessionsResponseEB7_
FNDA:0,_RINvMNtNtCs35aDzIjzncu_6hermes3acp7handlerNtB3_7Handler16send_autocommandNtNtNtB7_4nvim12autocommands8CommandsNtNtCs4yJtZWcHHPS_28agent_client_protocol_schema5agent21ResumeSessionResponseEB7_
FNDA:0,_RINvMNtNtCs35aDzIjzncu_6hermes3acp7handlerNtB3_7Handler16send_autocommandNtNtNtB7_4nvim12autocommands8CommandsNtNtCs4yJtZWcHHPS_28agent_client_protocol_schema5agent22SetSessionModeResponseEB7_
FNDA:0,_RINvMNtNtCs35aDzIjzncu_6hermes3acp7handlerNtB3_7Handler16send_autocommandNtNtNtB7_4nvim12autocommands8CommandsNtNtCs4yJtZWcHHPS_28agent_client_protocol_schema5agent23SetSessionModelResponseEB7_
FNDA:0,_RINvMNtNtCs35aDzIjzncu_6hermes3acp7handlerNtB3_7Handler16send_autocommandNtNtNtB7_4nvim12autocommands8CommandsNtNtCs4yJtZWcHHPS_28agent_client_protocol_schema5agent30SetSessionConfigOptionResponseEB7_
FNDA:0,_RINvMNtNtCs35aDzIjzncu_6hermes3acp7handlerNtB3_7Handler16send_autocommandNtNtNtB7_4nvim12autocommands8CommandsNtNtCs4yJtZWcHHPS_28agent_client_protocol_schema6client19ReadTextFileRequestEB7_
FNDA:0,_RINvMNtNtCs35aDzIjzncu_6hermes3acp7handlerNtB3_7Handler16send_autocommandNtNtNtB7_4nvim12autocommands8CommandsNtNtCs4yJtZWcHHPS_28agent_client_protocol_schema6client19SessionNotificationEB7_
FNDA:0,_RINvMNtNtCs35aDzIjzncu_6hermes3acp7handlerNtB3_7Handler16send_autocommandNtNtNtB7_4nvim12autocommands8CommandsNtNtCs4yJtZWcHHPS_28agent_client_protocol_schema6client20WriteTextFileRequestEB7_
FNDA:0,_RINvMNtNtCs35aDzIjzncu_6hermes3acp7handlerNtB3_7Handler16send_autocommandNtNtNtB7_4nvim12autocommands8CommandsNtNtCs4yJtZWcHHPS_28agent_client_protocol_schema6client21CreateTerminalRequestEB7_
FNDA:0,_RINvMNtNtCs35aDzIjzncu_6hermes3acp7handlerNtB3_7Handler16send_autocommandNtNtNtB7_4nvim12autocommands8CommandsNtNtCs4yJtZWcHHPS_28agent_client_protocol_schema6client21TerminalOutputRequestEB7_
FNDA:0,_RINvMNtNtCs35aDzIjzncu_6hermes3acp7handlerNtB3_7Handler16send_autocommandNtNtNtB7_4nvim12autocommands8CommandsNtNtCs4yJtZWcHHPS_28agent_client_protocol_schema6client22ReleaseTerminalRequestEB7_
FNDA:0,_RINvMNtNtCs35aDzIjzncu_6hermes3acp7handlerNtB3_7Handler16send_autocommandNtNtNtB7_4nvim12autocommands8CommandsNtNtCs4yJtZWcHHPS_28agent_client_protocol_schema6client24RequestPermissionRequestEB7_
FNDA:0,_RINvMNtNtCs35aDzIjzncu_6hermes3acp7handlerNtB3_7Handler16send_autocommandNtNtNtB7_4nvim12autocommands8CommandsNtNtCs4yJtZWcHHPS_28agent_client_protocol_schema6client26KillTerminalCommandRequestEB7_
FNDA:0,_RINvMNtNtCs35aDzIjzncu_6hermes3acp7handlerNtB3_7Handler16send_autocommandNtNtNtB7_4nvim12autocommands8CommandsNtNtCs4yJtZWcHHPS_28agent_client_protocol_schema6client26WaitForTerminalExitRequestEB7_
FNDA:0,_RINvMNtNtCs35aDzIjzncu_6hermes3acp7handlerNtB3_7Handler17listener_attachedNtNtCsauO83Ko6oyK_5alloc6string6StringEB7_
FNDA:0,_RINvMNtNtCs35aDzIjzncu_6hermes3acp7handlerNtB3_7Handler19execute_autocommandNtNtNtB7_4nvim12autocommands8CommandsNtNtCs2NGirYq1Gaa_10serde_json5value5ValueEB7_
FNDA:0,_RINvMNtNtCs35aDzIjzncu_6hermes3acp7handlerNtB3_7Handler19execute_autocommandNtNtNtB7_4nvim12autocommands8CommandsNtNtCs4yJtZWcHHPS_28agent_client_protocol_schema5agent14PromptResponseEB7_
FNDA:0,_RINvMNtNtCs35aDzIjzncu_6hermes3acp7handlerNtB3_7Handler19execute_autocommandNtNtNtB7_4nvim12autocommands8CommandsNtNtCs4yJtZWcHHPS_28agent_client_protocol_schema5agent18NewSessionResponseEB7_
FNDA:0,_RINvMNtNtCs35aDzIjzncu_6hermes3acp7handlerNtB3_7Handler19execute_autocommandNtNtNtB7_4nvim12autocommands8CommandsNtNtCs4yJtZWcHHPS_28agent_client_protocol_schema5agent19ForkSessionResponseEB7_
FNDA:0,_RINvMNtNtCs35aDzIjzncu_6hermes3acp7handlerNtB3_7Handler19execute_autocommandNtNtNtB7_4nvim12autocommands8CommandsNtNtCs4yJtZWcHHPS_28agent_client_protocol_schema5agent19LoadSessionResponseEB7_
FNDA:0,_RINvMNtNtCs35aDzIjzncu_6hermes3acp7handlerNtB3_7Handler19execute_autocommandNtNtNtB7_4nvim12autocommands8CommandsNtNtCs4yJtZWcHHPS_28agent_client_protocol_schema5agent20AuthenticateResponseEB7_
FNDA:0,_RINvMNtNtCs35aDzIjzncu_6hermes3acp7handlerNtB3_7Handler19execute_autocommandNtNtNtB7_4nvim12autocommands8CommandsNtNtCs4yJtZWcHHPS_28agent_client_protocol_schema5agent20ListSessionsResponseEB7_
FNDA:0,_RINvMNtNtCs35aDzIjzncu_6hermes3acp7handlerNtB3_7Handler19execute_autocommandNtNtNtB7_4nvim12autocommands8CommandsNtNtCs4yJtZWcHHPS_28agent_client_protocol_schema5agent21ResumeSessionResponseEB7_
FNDA:0,_RINvMNtNtCs35aDzIjzncu_6hermes3acp7handlerNtB3_7Handler19execute_autocommandNtNtNtB7_4nvim12autocommands8CommandsNtNtCs4yJtZWcHHPS_28agent_client_protocol_schema5agent22SetSessionModeResponseEB7_
FNDA:0,_RINvMNtNtCs35aDzIjzncu_6hermes3acp7handlerNtB3_7Handler19execute_autocommandNtNtNtB7_4nvim12autocommands8CommandsNtNtCs4yJtZWcHHPS_28agent_client_protocol_schema5agent23SetSessionModelResponseEB7_
FNDA:0,_RINvMNtNtCs35aDzIjzncu_6hermes3acp7handlerNtB3_7Handler19execute_autocommandNtNtNtB7_4nvim12autocommands8CommandsNtNtCs4yJtZWcHHPS_28agent_client_protocol_schema5agent30SetSessionConfigOptionResponseEB7_
FNDA:0,_RINvMNtNtCs35aDzIjzncu_6hermes3acp7handlerNtB3_7Handler19execute_autocommandNtNtNtB7_4nvim12autocommands8CommandsNtNtCs4yJtZWcHHPS_28agent_client_protocol_schema6client19SessionNotificationEB7_
FNDA:0,_RINvMNtNtCs35aDzIjzncu_6hermes3acp7handlerNtB3_7Handler27execute_autocommand_requestNtNtNtB7_4nvim12autocommands8CommandsNtNtCs4yJtZWcHHPS_28agent_client_protocol_schema6client19ReadTextFileRequestEB7_
FNDA:0,_RINvMNtNtCs35aDzIjzncu_6hermes3acp7handlerNtB3_7Handler27execute_autocommand_requestNtNtNtB7_4nvim12autocommands8CommandsNtNtCs4yJtZWcHHPS_28agent_client_protocol_schema6client20WriteTextFileRequestEB7_
FNDA:0,_RINvMNtNtCs35aDzIjzncu_6hermes3acp7handlerNtB3_7Handler27execute_autocommand_requestNtNtNtB7_4nvim12autocommands8CommandsNtNtCs4yJtZWcHHPS_28agent_client_protocol_schema6client21CreateTerminalRequestEB7_
FNDA:0,_RINvMNtNtCs35aDzIjzncu_6hermes3acp7handlerNtB3_7Handler27execute_autocommand_requestNtNtNtB7_4nvim12autocommands8CommandsNtNtCs4yJtZWcHHPS_28agent_client_protocol_schema6client21TerminalOutputRequestEB7_
FNDA:0,_RINvMNtNtCs35aDzIjzncu_6hermes3acp7handlerNtB3_7Handler27execute_autocommand_requestNtNtNtB7_4nvim12autocommands8CommandsNtNtCs4yJtZWcHHPS_28agent_client_protocol_schema6client22ReleaseTerminalRequestEB7_
FNDA:0,_RINvMNtNtCs35aDzIjzncu_6hermes3acp7handlerNtB3_7Handler27execute_autocommand_requestNtNtNtB7_4nvim12autocommands8CommandsNtNtCs4yJtZWcHHPS_28agent_client_protocol_schema6client24RequestPermissionRequestEB7_
FNDA:0,_RINvMNtNtCs35aDzIjzncu_6hermes3acp7handlerNtB3_7Handler27execute_autocommand_requestNtNtNtB7_4nvim12autocommands8CommandsNtNtCs4yJtZWcHHPS_28agent_client_protocol_schema6client26KillTerminalCommandRequestEB7_
FNDA:0,_RINvMNtNtCs35aDzIjzncu_6hermes3acp7handlerNtB3_7Handler27execute_autocommand_requestNtNtNtB7_4nvim12autocommands8CommandsNtNtCs4yJtZWcHHPS_28agent_client_protocol_schema6client26WaitForTerminalExitRequestEB7_
FNDA:0,_RINvMNtNtCs35aDzIjzncu_6hermes3acp7handlerNtB3_7Handler3newNtNtNtB7_4nvim8requests8RequestsEB7_
FNDA:0,_RNCINvMNtNtCs35aDzIjzncu_6hermes3acp7handlerNtB5_7Handler16send_autocommandNtNtNtB9_4nvim12autocommands8CommandsNtNtCs2NGirYq1Gaa_10serde_json5value5ValueE0B9_
FNDA:0,_RNCINvMNtNtCs35aDzIjzncu_6hermes3acp7handlerNtB5_7Handler16send_autocommandNtNtNtB9_4nvim12autocommands8CommandsNtNtCs4yJtZWcHHPS_28agent_client_protocol_schema5agent14PromptResponseE0B9_
FNDA:0,_RNCINvMNtNtCs35aDzIjzncu_6hermes3acp7handlerNtB5_7Handler16send_autocommandNtNtNtB9_4nvim12autocommands8CommandsNtNtCs4yJtZWcHHPS_28agent_client_protocol_schema5agent18NewSessionResponseE0B9_
FNDA:0,_RNCINvMNtNtCs35aDzIjzncu_6hermes3acp7handlerNtB5_7Handler16send_autocommandNtNtNtB9_4nvim12autocommands8CommandsNtNtCs4yJtZWcHHPS_28agent_client_protocol_schema5agent19ForkSessionResponseE0B9_
FNDA:0,_RNCINvMNtNtCs35aDzIjzncu_6hermes3acp7handlerNtB5_7Handler16send_autocommandNtNtNtB9_4nvim12autocommands8CommandsNtNtCs4yJtZWcHHPS_28agent_client_protocol_schema5agent19LoadSessionResponseE0B9_
FNDA:0,_RNCINvMNtNtCs35aDzIjzncu_6hermes3acp7handlerNtB5_7Handler16send_autocommandNtNtNtB9_4nvim12autocommands8CommandsNtNtCs4yJtZWcHHPS_28agent_client_protocol_schema5agent20AuthenticateResponseE0B9_
FNDA:0,_RNCINvMNtNtCs35aDzIjzncu_6hermes3acp7handlerNtB5_7Handler16send_autocommandNtNtNtB9_4nvim12autocommands8CommandsNtNtCs4yJtZWcHHPS_28agent_client_protocol_schema5agent20ListSessionsResponseE0B9_
FNDA:0,_RNCINvMNtNtCs35aDzIjzncu_6hermes3acp7handlerNtB5_7Handler16send_autocommandNtNtNtB9_4nvim12autocommands8CommandsNtNtCs4yJtZWcHHPS_28agent_client_protocol_schema5agent21ResumeSessionResponseE0B9_
FNDA:0,_RNCINvMNtNtCs35aDzIjzncu_6hermes3acp7handlerNtB5_7Handler16send_autocommandNtNtNtB9_4nvim12autocommands8CommandsNtNtCs4yJtZWcHHPS_28agent_client_protocol_schema5agent22SetSessionModeResponseE0B9_
FNDA:0,_RNCINvMNtNtCs35aDzIjzncu_6hermes3acp7handlerNtB5_7Handler16send_autocommandNtNtNtB9_4nvim12autocommands8CommandsNtNtCs4yJtZWcHHPS_28agent_client_protocol_schema5agent23SetSessionModelResponseE0B9_
FNDA:0,_RNCINvMNtNtCs35aDzIjzncu_6hermes3acp7handlerNtB5_7Handler16send_autocommandNtNtNtB9_4nvim12autocommands8CommandsNtNtCs4yJtZWcHHPS_28agent_client_protocol_schema5agent30SetSessionConfigOptionResponseE0B9_
FNDA:0,_RNCINvMNtNtCs35aDzIjzncu_6hermes3acp7handlerNtB5_7Handler16send_autocommandNtNtNtB9_4nvim12autocommands8CommandsNtNtCs4yJtZWcHHPS_28agent_client_protocol_schema6client19ReadTextFileRequestE0B9_
FNDA:0,_RNCINvMNtNtCs35aDzIjzncu_6hermes3acp7handlerNtB5_7Handler16send_autocommandNtNtNtB9_4nvim12autocommands8CommandsNtNtCs4yJtZWcHHPS_28agent_client_protocol_schema6client19SessionNotificationE0B9_
FNDA:0,_RNCINvMNtNtCs35aDzIjzncu_6hermes3acp7handlerNtB5_7Handler16send_autocommandNtNtNtB9_4nvim12autocommands8CommandsNtNtCs4yJtZWcHHPS_28agent_client_protocol_schema6client20WriteTextFileRequestE0B9_
FNDA:0,_RNCINvMNtNtCs35aDzIjzncu_6hermes3acp7handlerNtB5_7Handler16send_autocommandNtNtNtB9_4nvim12autocommands8CommandsNtNtCs4yJtZWcHHPS_28agent_client_protocol_schema6client21CreateTerminalRequestE0B9_
FNDA:0,_RNCINvMNtNtCs35aDzIjzncu_6hermes3acp7handlerNtB5_7Handler16send_autocommandNtNtNtB9_4nvim12autocommands8CommandsNtNtCs4yJtZWcHHPS_28agent_client_protocol_schema6client21TerminalOutputRequestE0B9_
FNDA:0,_RNCINvMNtNtCs35aDzIjzncu_6hermes3acp7handlerNtB5_7Handler16send_autocommandNtNtNtB9_4nvim12autocommands8CommandsNtNtCs4yJtZWcHHPS_28agent_client_protocol_schema6client22ReleaseTerminalRequestE0B9_
FNDA:0,_RNCINvMNtNtCs35aDzIjzncu_6hermes3acp7handlerNtB5_7Handler16send_autocommandNtNtNtB9_4nvim12autocommands8CommandsNtNtCs4yJtZWcHHPS_28agent_client_protocol_schema6client24RequestPermissionRequestE0B9_
FNDA:0,_RNCINvMNtNtCs35aDzIjzncu_6hermes3acp7handlerNtB5_7Handler16send_autocommandNtNtNtB9_4nvim12autocommands8CommandsNtNtCs4yJtZWcHHPS_28agent_client_protocol_schema6client26KillTerminalCommandRequestE0B9_
FNDA:0,_RNCINvMNtNtCs35aDzIjzncu_6hermes3acp7handlerNtB5_7Handler16send_autocommandNtNtNtB9_4nvim12autocommands8CommandsNtNtCs4yJtZWcHHPS_28agent_client_protocol_schema6client26WaitForTerminalExitRequestE0B9_
FNDA:0,_RNCINvMNtNtCs35aDzIjzncu_6hermes3acp7handlerNtB5_7Handler17listener_attachedNtNtCsauO83Ko6oyK_5alloc6string6StringE0B9_
FNDA:0,_RNCINvMNtNtCs35aDzIjzncu_6hermes3acp7handlerNtB5_7Handler17listener_attachedNtNtCsauO83Ko6oyK_5alloc6string6StringEs_0B9_
FNDA:0,_RNCINvMNtNtCs35aDzIjzncu_6hermes3acp7handlerNtB5_7Handler19execute_autocommandNtNtNtB9_4nvim12autocommands8CommandsNtNtCs2NGirYq1Gaa_10serde_json5value5ValueE0B9_
FNDA:0,_RNCINvMNtNtCs35aDzIjzncu_6hermes3acp7handlerNtB5_7Handler19execute_autocommandNtNtNtB9_4nvim12autocommands8CommandsNtNtCs4yJtZWcHHPS_28agent_client_protocol_schema5agent14PromptResponseE0B9_
FNDA:0,_RNCINvMNtNtCs35aDzIjzncu_6hermes3acp7handlerNtB5_7Handler19execute_autocommandNtNtNtB9_4nvim12autocommands8CommandsNtNtCs4yJtZWcHHPS_28agent_client_protocol_schema5agent18NewSessionResponseE0B9_
FNDA:0,_RNCINvMNtNtCs35aDzIjzncu_6hermes3acp7handlerNtB5_7Handler19execute_autocommandNtNtNtB9_4nvim12autocommands8CommandsNtNtCs4yJtZWcHHPS_28agent_client_protocol_schema5agent19ForkSessionResponseE0B9_
FNDA:0,_RNCINvMNtNtCs35aDzIjzncu_6hermes3acp7handlerNtB5_7Handler19execute_autocommandNtNtNtB9_4nvim12autocommands8CommandsNtNtCs4yJtZWcHHPS_28agent_client_protocol_schema5agent19LoadSessionResponseE0B9_
FNDA:0,_RNCINvMNtNtCs35aDzIjzncu_6hermes3acp7handlerNtB5_7Handler19execute_autocommandNtNtNtB9_4nvim12autocommands8CommandsNtNtCs4yJtZWcHHPS_28agent_client_protocol_schema5agent20AuthenticateResponseE0B9_
FNDA:0,_RNCINvMNtNtCs35aDzIjzncu_6hermes3acp7handlerNtB5_7Handler19execute_autocommandNtNtNtB9_4nvim12autocommands8CommandsNtNtCs4yJtZWcHHPS_28agent_client_protocol_schema5agent20ListSessionsResponseE0B9_
FNDA:0,_RNCINvMNtNtCs35aDzIjzncu_6hermes3acp7handlerNtB5_7Handler19execute_autocommandNtNtNtB9_4nvim12autocommands8CommandsNtNtCs4yJtZWcHHPS_28agent_client_protocol_schema5agent21ResumeSessionResponseE0B9_
FNDA:0,_RNCINvMNtNtCs35aDzIjzncu_6hermes3acp7handlerNtB5_7Handler19execute_autocommandNtNtNtB9_4nvim12autocommands8CommandsNtNtCs4yJtZWcHHPS_28agent_client_protocol_schema5agent22SetSessionModeResponseE0B9_
FNDA:0,_RNCINvMNtNtCs35aDzIjzncu_6hermes3acp7handlerNtB5_7Handler19execute_autocommandNtNtNtB9_4nvim12autocommands8CommandsNtNtCs4yJtZWcHHPS_28agent_client_protocol_schema5agent23SetSessionModelResponseE0B9_
FNDA:0,_RNCINvMNtNtCs35aDzIjzncu_6hermes3acp7handlerNtB5_7Handler19execute_autocommandNtNtNtB9_4nvim12autocommands8CommandsNtNtCs4yJtZWcHHPS_28agent_client_protocol_schema5agent30SetSessionConfigOptionResponseE0B9_
FNDA:0,_RNCINvMNtNtCs35aDzIjzncu_6hermes3acp7handlerNtB5_7Handler19execute_autocommandNtNtNtB9_4nvim12autocommands8CommandsNtNtCs4yJtZWcHHPS_28agent_client_protocol_schema6client19SessionNotificationE0B9_
FNDA:0,_RNCINvMNtNtCs35aDzIjzncu_6hermes3acp7handlerNtB5_7Handler27execute_autocommand_requestNtNtNtB9_4nvim12autocommands8CommandsNtNtCs4yJtZWcHHPS_28agent_client_protocol_schema6client19ReadTextFileRequestE0B9_
FNDA:0,_RNCINvMNtNtCs35aDzIjzncu_6hermes3acp7handlerNtB5_7Handler27execute_autocommand_requestNtNtNtB9_4nvim12autocommands8CommandsNtNtCs4yJtZWcHHPS_28agent_client_protocol_schema6client20WriteTextFileRequestE0B9_
FNDA:0,_RNCINvMNtNtCs35aDzIjzncu_6hermes3acp7handlerNtB5_7Handler27execute_autocommand_requestNtNtNtB9_4nvim12autocommands8CommandsNtNtCs4yJtZWcHHPS_28agent_client_protocol_schema6client21CreateTerminalRequestE0B9_
FNDA:0,_RNCINvMNtNtCs35aDzIjzncu_6hermes3acp7handlerNtB5_7Handler27execute_autocommand_requestNtNtNtB9_4nvim12autocommands8CommandsNtNtCs4yJtZWcHHPS_28agent_client_protocol_schema6client21TerminalOutputRequestE0B9_
FNDA:0,_RNCINvMNtNtCs35aDzIjzncu_6hermes3acp7handlerNtB5_7Handler27execute_autocommand_requestNtNtNtB9_4nvim12autocommands8CommandsNtNtCs4yJtZWcHHPS_28agent_client_protocol_schema6client22ReleaseTerminalRequestE0B9_
FNDA:0,_RNCINvMNtNtCs35aDzIjzncu_6hermes3acp7handlerNtB5_7Handler27execute_autocommand_requestNtNtNtB9_4nvim12autocommands8CommandsNtNtCs4yJtZWcHHPS_28agent_client_protocol_schema6client24RequestPermissionRequestE0B9_
FNDA:0,_RNCINvMNtNtCs35aDzIjzncu_6hermes3acp7handlerNtB5_7Handler27execute_autocommand_requestNtNtNtB9_4nvim12autocommands8CommandsNtNtCs4yJtZWcHHPS_28agent_client_protocol_schema6client26KillTerminalCommandRequestE0B9_
FNDA:0,_RNCINvMNtNtCs35aDzIjzncu_6hermes3acp7handlerNtB5_7Handler27execute_autocommand_requestNtNtNtB9_4nvim12autocommands8CommandsNtNtCs4yJtZWcHHPS_28agent_client_protocol_schema6client26WaitForTerminalExitRequestE0B9_
FNDA:0,_RNCINvMNtNtCs35aDzIjzncu_6hermes3acp7handlerNtB5_7Handler3newNtNtNtB9_4nvim8requests8RequestsE0B9_
FNDA:0,_RNCNCINvMNtNtCs35aDzIjzncu_6hermes3acp7handlerNtB7_7Handler3newNtNtNtBb_4nvim8requests8RequestsE00Bb_
FNDA:0,_RNCNCINvMNtNtCs35aDzIjzncu_6hermes3acp7handlerNtB7_7Handler3newNtNtNtBb_4nvim8requests8RequestsE0s_0Bb_
FNDA:0,_RNCNvMNtNtCs35aDzIjzncu_6hermes3acp7handlerNtB4_7Handler14set_agent_info0B8_
FNDA:0,_RNCNvMNtNtCs35aDzIjzncu_6hermes3acp7handlerNtB4_7Handler19can_access_terminal0B8_
FNDA:0,_RNCNvMNtNtCs35aDzIjzncu_6hermes3acp7handlerNtB4_7Handler23can_request_permissions0B8_
FNDA:0,_RNCNvMNtNtCs35aDzIjzncu_6hermes3acp7handlerNtB4_7Handler25can_receive_notifications0B8_
FNDA:0,_RNCNvMNtNtCs35aDzIjzncu_6hermes3acp7handlerNtB4_7Handler8can_read0B8_
FNDA:0,_RNCNvMNtNtCs35aDzIjzncu_6hermes3acp7handlerNtB4_7Handler9can_write0B8_
FNF:27
FNH:0
DA:29,0
DA:30,0
DA:31,0
DA:32,0
DA:33,0
DA:34,0
DA:35,0
DA:36,0
DA:37,0
DA:38,0
DA:39,0
DA:40,0
DA:41,0
DA:42,0
DA:43,0
DA:44,0
DA:45,0
DA:46,0
DA:47,0
DA:48,0
DA:49,0
DA:50,0
DA:51,0
DA:55,0
DA:56,0
DA:57,0
DA:59,0
DA:64,0
DA:65,0
DA:69,0
DA:70,0
DA:71,0
DA:72,0
DA:76,0
DA:77,0
DA:79,0
DA:81,0
DA:82,0
DA:83,0
DA:84,0
DA:87,0
DA:88,0
DA:89,0
DA:91,0
DA:96,0
DA:97,0
DA:98,0
DA:99,0
DA:101,0
DA:102,0
DA:103,0
DA:104,0
DA:105,0
DA:106,0
DA:107,0
DA:108,0
DA:111,0
DA:116,0
DA:119,0
DA:124,0
DA:127,0
DA:132,0
DA:135,0
DA:140,0
DA:143,0
DA:144,0
DA:145,0
DA:146,0
DA:147,0
DA:151,0
DA:154,0
DA:159,0
DA:162,0
DA:167,0
DA:170,0
DA:171,0
DA:172,0
DA:173,0
DA:174,0
DA:176,0
DA:179,0
DA:180,0
DA:181,0
DA:182,0
DA:183,0
DA:184,0
DA:185,0
DA:186,0
DA:187,0
DA:188,0
DA:194,0
DA:197,0
DA:198,0
DA:199,0
DA:200,0
DA:201,0
DA:202,0
DA:203,0
DA:207,0
BRF:0
BRH:0
LF:112
LH:0
end_of_record
SF:/var/www/hermes/src/acp/handler/response.rs
FN:43,_RNCNCNCNvMNtNtNtCs35aDzIjzncu_6hermes3acp7handler8responseNtBa_7Handler11initialized000Be_
FN:48,_RNCNCNCNvMNtNtNtCs35aDzIjzncu_6hermes3acp7handler8responseNtBa_7Handler11initialized00s_0Be_
FN:20,_RNCNvMNtNtNtCs35aDzIjzncu_6hermes3acp7handler8responseNtB6_7Handler11initialized0Ba_
FN:69,_RNCNvMNtNtNtCs35aDzIjzncu_6hermes3acp7handler8responseNtB6_7Handler13authenticated0Ba_
FN:107,_RNCNvMNtNtNtCs35aDzIjzncu_6hermes3acp7handler8responseNtB6_7Handler14session_forked0Ba_
FN:90,_RNCNvMNtNtNtCs35aDzIjzncu_6hermes3acp7handler8responseNtB6_7Handler14session_loaded0Ba_
FN:58,_RNCNvMNtNtNtCs35aDzIjzncu_6hermes3acp7handler8responseNtB6_7Handler15session_created0Ba_
FN:113,_RNCNvMNtNtNtCs35aDzIjzncu_6hermes3acp7handler8responseNtB6_7Handler15session_resumed0Ba_
FN:101,_RNCNvMNtNtNtCs35aDzIjzncu_6hermes3acp7handler8responseNtB6_7Handler15sessions_listed0Ba_
FN:78,_RNCNvMNtNtNtCs35aDzIjzncu_6hermes3acp7handler8responseNtB6_7Handler17config_option_set0Ba_
FN:119,_RNCNvMNtNtNtCs35aDzIjzncu_6hermes3acp7handler8responseNtB6_7Handler17session_model_set0Ba_
FN:96,_RNCNvMNtNtNtCs35aDzIjzncu_6hermes3acp7handler8responseNtB6_7Handler23custom_command_executed0Ba_
FN:84,_RNCNvMNtNtNtCs35aDzIjzncu_6hermes3acp7handler8responseNtB6_7Handler8mode_set0Ba_
FN:64,_RNCNvMNtNtNtCs35aDzIjzncu_6hermes3acp7handler8responseNtB6_7Handler8prompted0Ba_
FN:16,_RNvMNtNtNtCs35aDzIjzncu_6hermes3acp7handler8responseNtB4_7Handler11initialized
FN:69,_RNvMNtNtNtCs35aDzIjzncu_6hermes3acp7handler8responseNtB4_7Handler13authenticated
FN:107,_RNvMNtNtNtCs35aDzIjzncu_6hermes3acp7handler8responseNtB4_7Handler14session_forked
FN:90,_RNvMNtNtNtCs35aDzIjzncu_6hermes3acp7handler8responseNtB4_7Handler14session_loaded
FN:58,_RNvMNtNtNtCs35aDzIjzncu_6hermes3acp7handler8responseNtB4_7Handler15session_created
FN:113,_RNvMNtNtNtCs35aDzIjzncu_6hermes3acp7handler8responseNtB4_7Handler15session_resumed
FN:101,_RNvMNtNtNtCs35aDzIjzncu_6hermes3acp7handler8responseNtB4_7Handler15sessions_listed
FN:75,_RNvMNtNtNtCs35aDzIjzncu_6hermes3acp7handler8responseNtB4_7Handler17config_option_set
FN:119,_RNvMNtNtNtCs35aDzIjzncu_6hermes3acp7handler8responseNtB4_7Handler17session_model_set
FN:96,_RNvMNtNtNtCs35aDzIjzncu_6hermes3acp7handler8responseNtB4_7Handler23custom_command_executed
FN:84,_RNvMNtNtNtCs35aDzIjzncu_6hermes3acp7handler8responseNtB4_7Handler8mode_set
FN:64,_RNvMNtNtNtCs35aDzIjzncu_6hermes3acp7handler8responseNtB4_7Handler8prompted
FNDA:0,_RNCNCNCNvMNtNtNtCs35aDzIjzncu_6hermes3acp7handler8responseNtBa_7Handler11initialized000Be_
FNDA:0,_RNCNCNCNvMNtNtNtCs35aDzIjzncu_6hermes3acp7handler8responseNtBa_7Handler11initialized00s_0Be_
FNDA:0,_RNCNvMNtNtNtCs35aDzIjzncu_6hermes3acp7handler8responseNtB6_7Handler11initialized0Ba_
FNDA:0,_RNCNvMNtNtNtCs35aDzIjzncu_6hermes3acp7handler8responseNtB6_7Handler13authenticated0Ba_
FNDA:0,_RNCNvMNtNtNtCs35aDzIjzncu_6hermes3acp7handler8responseNtB6_7Handler14session_forked0Ba_
FNDA:0,_RNCNvMNtNtNtCs35aDzIjzncu_6hermes3acp7handler8responseNtB6_7Handler14session_loaded0Ba_
FNDA:0,_RNCNvMNtNtNtCs35aDzIjzncu_6hermes3acp7handler8responseNtB6_7Handler15session_created0Ba_
FNDA:0,_RNCNvMNtNtNtCs35aDzIjzncu_6hermes3acp7handler8responseNtB6_7Handler15session_resumed0Ba_
FNDA:0,_RNCNvMNtNtNtCs35aDzIjzncu_6hermes3acp7handler8responseNtB6_7Handler15sessions_listed0Ba_
FNDA:0,_RNCNvMNtNtNtCs35aDzIjzncu_6hermes3acp7handler8responseNtB6_7Handler17config_option_set0Ba_
FNDA:0,_RNCNvMNtNtNtCs35aDzIjzncu_6hermes3acp7handler8responseNtB6_7Handler17session_model_set0Ba_
FNDA:0,_RNCNvMNtNtNtCs35aDzIjzncu_6hermes3acp7handler8responseNtB6_7Handler23custom_command_executed0Ba_
FNDA:0,_RNCNvMNtNtNtCs35aDzIjzncu_6hermes3acp7handler8responseNtB6_7Handler8mode_set0Ba_
FNDA:0,_RNCNvMNtNtNtCs35aDzIjzncu_6hermes3acp7handler8responseNtB6_7Handler8prompted0Ba_
FNDA:0,_RNvMNtNtNtCs35aDzIjzncu_6hermes3acp7handler8responseNtB4_7Handler11initialized
FNDA:0,_RNvMNtNtNtCs35aDzIjzncu_6hermes3acp7handler8responseNtB4_7Handler13authenticated
FNDA:0,_RNvMNtNtNtCs35aDzIjzncu_6hermes3acp7handler8responseNtB4_7Handler14session_forked
FNDA:0,_RNvMNtNtNtCs35aDzIjzncu_6hermes3acp7handler8responseNtB4_7Handler14session_loaded
FNDA:0,_RNvMNtNtNtCs35aDzIjzncu_6hermes3acp7handler8responseNtB4_7Handler15session_created
FNDA:0,_RNvMNtNtNtCs35aDzIjzncu_6hermes3acp7handler8responseNtB4_7Handler15session_resumed
FNDA:0,_RNvMNtNtNtCs35aDzIjzncu_6hermes3acp7handler8responseNtB4_7Handler15sessions_listed
FNDA:0,_RNvMNtNtNtCs35aDzIjzncu_6hermes3acp7handler8responseNtB4_7Handler17config_option_set
FNDA:0,_RNvMNtNtNtCs35aDzIjzncu_6hermes3acp7handler8responseNtB4_7Handler17session_model_set
FNDA:0,_RNvMNtNtNtCs35aDzIjzncu_6hermes3acp7handler8responseNtB4_7Handler23custom_command_executed
FNDA:0,_RNvMNtNtNtCs35aDzIjzncu_6hermes3acp7handler8responseNtB4_7Handler8mode_set
FNDA:0,_RNvMNtNtNtCs35aDzIjzncu_6hermes3acp7handler8responseNtB4_7Handler8prompted
FNF:26
FNH:0
DA:16,0
DA:17,0
DA:18,0
DA:19,0
DA:20,0
DA:43,0
DA:44,0
DA:45,0
DA:46,0
DA:48,0
DA:49,0
DA:50,0
DA:51,0
DA:56,0
DA:58,0
DA:61,0
DA:64,0
DA:66,0
DA:69,0
DA:72,0
DA:75,0
DA:76,0
DA:77,0
DA:78,0
DA:81,0
DA:84,0
DA:87,0
DA:90,0
DA:93,0
DA:96,0
DA:98,0
DA:101,0
DA:104,0
DA:107,0
DA:110,0
DA:113,0
DA:116,0
DA:119,0
DA:122,0
BRF:0
BRH:0
LF:51
LH:0
end_of_record
SF:/var/www/hermes/src/nvim/api/authenticate.rs
FN:9,_RNvNtNtNtCs35aDzIjzncu_6hermes4nvim3api12authenticate12authenticate
FN:17,_RNCNCNvNtNtNtCs35aDzIjzncu_6hermes4nvim3api12authenticate12authenticate00Bb_
FN:11,_RNCNvNtNtNtCs35aDzIjzncu_6hermes4nvim3api12authenticate12authenticate0B9_
FNDA:0,_RNvNtNtNtCs35aDzIjzncu_6hermes4nvim3api12authenticate12authenticate
FNDA:0,_RNCNCNvNtNtNtCs35aDzIjzncu_6hermes4nvim3api12authenticate12authenticate00Bb_
FNDA:0,_RNCNvNtNtNtCs35aDzIjzncu_6hermes4nvim3api12authenticate12authenticate0B9_
FNF:3
FNH:0
DA:9,0
DA:10,0
DA:11,0
DA:12,0
DA:13,0
DA:14,0
DA:15,0
DA:16,0
DA:17,0
DA:18,0
DA:19,0
DA:20,0
DA:21,0
DA:22,0
DA:23,0
DA:24,0
DA:25,0
DA:26,0
DA:27,0
BRF:0
BRH:0
LF:22
LH:0
end_of_record
SF:/var/www/hermes/src/nvim/api/cancel.rs
FN:9,_RINvNtNtNtCs35aDzIjzncu_6hermes4nvim3api6cancel6cancelNtNtB6_8requests8RequestsEB8_
FN:14,_RNCINvNtNtNtCs35aDzIjzncu_6hermes4nvim3api6cancel6cancelNtNtB8_8requests8RequestsE0Ba_
FN:20,_RNCNCINvNtNtNtCs35aDzIjzncu_6hermes4nvim3api6cancel6cancelNtNtBa_8requests8RequestsE00Bc_
FN:26,_RNCNCINvNtNtNtCs35aDzIjzncu_6hermes4nvim3api6cancel6cancelNtNtBa_8requests8RequestsE0s_0Bc_
FNDA:0,_RINvNtNtNtCs35aDzIjzncu_6hermes4nvim3api6cancel6cancelNtNtB6_8requests8RequestsEB8_
FNDA:0,_RNCINvNtNtNtCs35aDzIjzncu_6hermes4nvim3api6cancel6cancelNtNtB8_8requests8RequestsE0Ba_
FNDA:0,_RNCNCINvNtNtNtCs35aDzIjzncu_6hermes4nvim3api6cancel6cancelNtNtBa_8requests8RequestsE00Bc_
FNDA:0,_RNCNCINvNtNtNtCs35aDzIjzncu_6hermes4nvim3api6cancel6cancelNtNtBa_8requests8RequestsE0s_0Bc_
FNF:4
FNH:0
DA:9,0
DA:10,0
DA:11,0
DA:12,0
DA:13,0
DA:14,0
DA:15,0
DA:16,0
DA:17,0
DA:18,0
DA:19,0
DA:20,0
DA:21,0
DA:22,0
DA:23,0
DA:24,0
DA:25,0
DA:26,0
DA:27,0
DA:28,0
DA:29,0
DA:30,0
DA:31,0
BRF:0
BRH:0
LF:27
LH:0
end_of_record
SF:/var/www/hermes/src/nvim/api/connect.rs
FN:98,_RNvNtNtNtNtCs35aDzIjzncu_6hermes4nvim3api7connect5tests14arb_agent_name
FN:137,_RNvNtNtNtNtCs35aDzIjzncu_6hermes4nvim3api7connect5testss_31test_assistant_from_str_copilot
FN:142,_RNvNtNtNtNtCs35aDzIjzncu_6hermes4nvim3api7connect5testss_32test_assistant_from_str_opencode
FN:153,_RNvNtNtNtNtCs35aDzIjzncu_6hermes4nvim3api7connect5testss_34test_assistant_custom_with_command
FN:147,_RNvNtNtNtNtCs35aDzIjzncu_6hermes4nvim3api7connect5testss_40test_assistant_from_str_case_insensitive
FN:106,_RNCNvNtNtNtNtCs35aDzIjzncu_6hermes4nvim3api7connect5tests14arb_agent_name0Bb_
FN:53,_RNCNCNCNvNtNtNtCs35aDzIjzncu_6hermes4nvim3api7connect7connect0s0_00Bd_
FN:33,_RNCNCNvNtNtNtCs35aDzIjzncu_6hermes4nvim3api7connect7connect00Bb_
FN:53,_RNCNCNvNtNtNtCs35aDzIjzncu_6hermes4nvim3api7connect7connect0s0_0Bb_
FN:82,_RNCNCNvNtNtNtCs35aDzIjzncu_6hermes4nvim3api7connect7connect0s1_0Bb_
FN:42,_RNCNCNvNtNtNtCs35aDzIjzncu_6hermes4nvim3api7connect7connect0s_0Bb_
FN:14,_RNCNvNtNtNtCs35aDzIjzncu_6hermes4nvim3api7connect7connect0B9_
FN:12,_RNvNtNtNtCs35aDzIjzncu_6hermes4nvim3api7connect7connect
FNDA:1,_RNvNtNtNtNtCs35aDzIjzncu_6hermes4nvim3api7connect5tests14arb_agent_name
FNDA:1,_RNvNtNtNtNtCs35aDzIjzncu_6hermes4nvim3api7connect5testss_31test_assistant_from_str_copilot
FNDA:1,_RNvNtNtNtNtCs35aDzIjzncu_6hermes4nvim3api7connect5testss_32test_assistant_from_str_opencode
FNDA:1,_RNvNtNtNtNtCs35aDzIjzncu_6hermes4nvim3api7connect5testss_34test_assistant_custom_with_command
FNDA:1,_RNvNtNtNtNtCs35aDzIjzncu_6hermes4nvim3api7connect5testss_40test_assistant_from_str_case_insensitive
FNDA:45,_RNCNvNtNtNtNtCs35aDzIjzncu_6hermes4nvim3api7connect5tests14arb_agent_name0Bb_
FNDA:0,_RNCNCNCNvNtNtNtCs35aDzIjzncu_6hermes4nvim3api7connect7connect0s0_00Bd_
FNDA:0,_RNCNCNvNtNtNtCs35aDzIjzncu_6hermes4nvim3api7connect7connect00Bb_
FNDA:0,_RNCNCNvNtNtNtCs35aDzIjzncu_6hermes4nvim3api7connect7connect0s0_0Bb_
FNDA:0,_RNCNCNvNtNtNtCs35aDzIjzncu_6hermes4nvim3api7connect7connect0s1_0Bb_
FNDA:0,_RNCNCNvNtNtNtCs35aDzIjzncu_6hermes4nvim3api7connect7connect0s_0Bb_
FNDA:0,_RNCNvNtNtNtCs35aDzIjzncu_6hermes4nvim3api7connect7connect0B9_
FNDA:0,_RNvNtNtNtCs35aDzIjzncu_6hermes4nvim3api7connect7connect
FNF:13
FNH:6
DA:12,0
DA:13,0
DA:14,0
DA:15,0
DA:20,0
DA:23,0
DA:24,0
DA:25,0
DA:27,0
DA:29,0
DA:30,0
DA:31,0
DA:32,0
DA:33,0
DA:34,0
DA:35,0
DA:38,0
DA:39,0
DA:40,0
DA:41,0
DA:42,0
DA:43,0
DA:44,0
DA:47,0
DA:48,0
DA:50,0
DA:51,0
DA:52,0
DA:53,0
DA:54,0
DA:55,0
DA:56,0
DA:57,0
DA:58,0
DA:59,0
DA:60,0
DA:61,0
DA:62,0
DA:63,0
DA:65,0
DA:69,0
DA:70,0
DA:72,0
DA:73,0
DA:74,0
DA:75,0
DA:76,0
DA:77,0
DA:78,0
DA:79,0
DA:80,0
DA:81,0
DA:82,0
DA:83,0
DA:84,0
DA:85,0
DA:86,0
DA:87,0
DA:89,0
DA:90,0
DA:98,1
DA:99,1
DA:100,1
DA:101,1
DA:102,1
DA:103,1
DA:104,1
DA:105,1
DA:106,45
DA:108,1
DA:137,1
DA:138,1
DA:139,1
DA:142,1
DA:143,1
DA:144,1
DA:147,1
DA:148,1
DA:149,1
DA:150,1
DA:153,1
DA:154,1
DA:155,1
DA:156,1
BRF:0
BRH:0
LF:91
LH:25
end_of_record
SF:/var/www/hermes/src/nvim/api/create_session.rs
FN:78,_RNCNCNvXs0_NtNtNtCs35aDzIjzncu_6hermes4nvim3api14create_sessionNtB9_17CreateSessionArgsNtNtCs1G52j7fviBR_15nvim_oxi_luajit8pushable8Pushable4push00Bf_
FN:120,_RNCNCNvXs0_NtNtNtCs35aDzIjzncu_6hermes4nvim3api14create_sessionNtB9_17CreateSessionArgsNtNtCs1G52j7fviBR_15nvim_oxi_luajit8pushable8Pushable4push0s0_0Bf_
FN:96,_RNCNCNvXs0_NtNtNtCs35aDzIjzncu_6hermes4nvim3api14create_sessionNtB9_17CreateSessionArgsNtNtCs1G52j7fviBR_15nvim_oxi_luajit8pushable8Pushable4push0s_0Bf_
FN:69,_RNCNvXs0_NtNtNtCs35aDzIjzncu_6hermes4nvim3api14create_sessionNtB7_17CreateSessionArgsNtNtCs1G52j7fviBR_15nvim_oxi_luajit8pushable8Pushable4push0Bd_
FN:55,_RNvXs0_NtNtNtCs35aDzIjzncu_6hermes4nvim3api14create_sessionNtB5_17CreateSessionArgsNtNtCs1G52j7fviBR_15nvim_oxi_luajit8pushable8Pushable4push
FN:197,_RNCNvNtNtNtNtCs35aDzIjzncu_6hermes4nvim3api14create_session18session_args_tests26arb_mcp_server_type_string0Bb_
FN:529,_RNCNvNtNtNtNtCs35aDzIjzncu_6hermes4nvim3api14create_session18session_args_testss_30test_readme_example_compliance0Bb_
FN:533,_RNCNvNtNtNtNtCs35aDzIjzncu_6hermes4nvim3api14create_session18session_args_testss_30test_readme_example_compliances_0Bb_
FN:156,_RNCNCNvNtNtNtCs35aDzIjzncu_6hermes4nvim3api14create_session14create_session00Bb_
FN:168,_RNCNCNvNtNtNtCs35aDzIjzncu_6hermes4nvim3api14create_session14create_session0s_0Bb_
FN:36,_RNCNCNvXNtNtNtCs35aDzIjzncu_6hermes4nvim3api14create_sessionNtB6_17CreateSessionArgsNtNtCsjJN1CJkPTUm_14nvim_oxi_types10conversion10FromObject11from_object00Bc_
FN:151,_RNCNvNtNtNtCs35aDzIjzncu_6hermes4nvim3api14create_session14create_session0B9_
FN:32,_RNCNvXNtNtNtCs35aDzIjzncu_6hermes4nvim3api14create_sessionNtB4_17CreateSessionArgsNtNtCsjJN1CJkPTUm_14nvim_oxi_types10conversion10FromObject11from_object0Ba_
FN:50,_RNCNvXs_NtNtNtCs35aDzIjzncu_6hermes4nvim3api14create_sessionNtB6_17CreateSessionArgsNtNtCs1G52j7fviBR_15nvim_oxi_luajit8poppable8Poppable3pop0Bc_
FN:146,_RNvNtNtNtCs35aDzIjzncu_6hermes4nvim3api14create_session14create_session
FN:25,_RNvXNtNtNtCs35aDzIjzncu_6hermes4nvim3api14create_sessionNtB2_17CreateSessionArgsNtNtCsjJN1CJkPTUm_14nvim_oxi_types10conversion10FromObject11from_object
FN:48,_RNvXs_NtNtNtCs35aDzIjzncu_6hermes4nvim3api14create_sessionNtB4_17CreateSessionArgsNtNtCs1G52j7fviBR_15nvim_oxi_luajit8poppable8Poppable3pop
FN:567,_RNvNtNtNtNtCs35aDzIjzncu_6hermes4nvim3api14create_session18session_args_tests19round_trip_sse_dict
FN:351,_RNvNtNtNtNtCs35aDzIjzncu_6hermes4nvim3api14create_session18session_args_tests20create_explicit_args
FN:556,_RNvNtNtNtNtCs35aDzIjzncu_6hermes4nvim3api14create_session18session_args_tests20round_trip_http_dict
FN:578,_RNvNtNtNtNtCs35aDzIjzncu_6hermes4nvim3api14create_session18session_args_tests21round_trip_stdio_dict
FN:287,_RNvNtNtNtNtCs35aDzIjzncu_6hermes4nvim3api14create_session18session_args_tests25create_stdio_default_args
FN:191,_RNvNtNtNtNtCs35aDzIjzncu_6hermes4nvim3api14create_session18session_args_tests26arb_mcp_server_type_string
FN:397,_RNvNtNtNtNtCs35aDzIjzncu_6hermes4nvim3api14create_session18session_args_testss_21test_explicit_sse_url
FN:427,_RNvNtNtNtNtCs35aDzIjzncu_6hermes4nvim3api14create_session18session_args_testss_22test_explicit_http_url
FN:382,_RNvNtNtNtNtCs35aDzIjzncu_6hermes4nvim3api14create_session18session_args_testss_22test_explicit_sse_name
FN:412,_RNvNtNtNtNtCs35aDzIjzncu_6hermes4nvim3api14create_session18session_args_testss_23test_explicit_http_name
FN:635,_RNvNtNtNtNtCs35aDzIjzncu_6hermes4nvim3api14create_session18session_args_testss_23test_round_trip_sse_url
FN:442,_RNvNtNtNtNtCs35aDzIjzncu_6hermes4nvim3api14create_session18session_args_testss_24test_explicit_stdio_name
FN:277,_RNvNtNtNtNtCs35aDzIjzncu_6hermes4nvim3api14create_session18session_args_testss_24test_from_object_default
FN:605,_RNvNtNtNtNtCs35aDzIjzncu_6hermes4nvim3api14create_session18session_args_testss_24test_round_trip_http_url
FN:620,_RNvNtNtNtNtCs35aDzIjzncu_6hermes4nvim3api14create_session18session_args_testss_24test_round_trip_sse_name
FN:321,_RNvNtNtNtNtCs35aDzIjzncu_6hermes4nvim3api14create_session18session_args_testss_24test_stdio_defaults_name
FN:590,_RNvNtNtNtNtCs35aDzIjzncu_6hermes4nvim3api14create_session18session_args_testss_25test_round_trip_http_name
FN:650,_RNvNtNtNtNtCs35aDzIjzncu_6hermes4nvim3api14create_session18session_args_testss_26test_round_trip_stdio_name
FN:457,_RNvNtNtNtNtCs35aDzIjzncu_6hermes4nvim3api14create_session18session_args_testss_27test_explicit_stdio_command
FN:336,_RNvNtNtNtNtCs35aDzIjzncu_6hermes4nvim3api14create_session18session_args_testss_27test_stdio_defaults_command
FN:665,_RNvNtNtNtNtCs35aDzIjzncu_6hermes4nvim3api14create_session18session_args_testss_29test_round_trip_stdio_command
FN:472,_RNvNtNtNtNtCs35aDzIjzncu_6hermes4nvim3api14create_session18session_args_testss_30test_readme_example_compliance
FN:248,_RNvNtNtNtNtCs35aDzIjzncu_6hermes4nvim3api14create_session18session_args_testss_32test_mcp_server_type_display_sse
FN:310,_RNvNtNtNtNtCs35aDzIjzncu_6hermes4nvim3api14create_session18session_args_testss_32test_stdio_defaults_server_count
FN:243,_RNvNtNtNtNtCs35aDzIjzncu_6hermes4nvim3api14create_session18session_args_testss_33test_mcp_server_type_display_http
FN:238,_RNvNtNtNtNtCs35aDzIjzncu_6hermes4nvim3api14create_session18session_args_testss_34test_mcp_server_type_display_stdio
FN:265,_RNvNtNtNtNtCs35aDzIjzncu_6hermes4nvim3api14create_session18session_args_testss_36test_mcp_server_type_from_string_sse
FN:301,_RNvNtNtNtNtCs35aDzIjzncu_6hermes4nvim3api14create_session18session_args_testss_36test_stdio_defaults_is_configuration
FN:259,_RNvNtNtNtNtCs35aDzIjzncu_6hermes4nvim3api14create_session18session_args_testss_37test_mcp_server_type_from_string_http
FN:253,_RNvNtNtNtNtCs35aDzIjzncu_6hermes4nvim3api14create_session18session_args_testss_38test_mcp_server_type_from_string_stdio
FN:271,_RNvNtNtNtNtCs35aDzIjzncu_6hermes4nvim3api14create_session18session_args_testss_58test_mcp_server_type_from_string_unknown_defaults_to_stdio
FNDA:0,_RNCNCNvXs0_NtNtNtCs35aDzIjzncu_6hermes4nvim3api14create_sessionNtB9_17CreateSessionArgsNtNtCs1G52j7fviBR_15nvim_oxi_luajit8pushable8Pushable4push00Bf_
FNDA:0,_RNCNCNvXs0_NtNtNtCs35aDzIjzncu_6hermes4nvim3api14create_sessionNtB9_17CreateSessionArgsNtNtCs1G52j7fviBR_15nvim_oxi_luajit8pushable8Pushable4push0s0_0Bf_
FNDA:0,_RNCNCNvXs0_NtNtNtCs35aDzIjzncu_6hermes4nvim3api14create_sessionNtB9_17CreateSessionArgsNtNtCs1G52j7fviBR_15nvim_oxi_luajit8pushable8Pushable4push0s_0Bf_
FNDA:0,_RNCNvXs0_NtNtNtCs35aDzIjzncu_6hermes4nvim3api14create_sessionNtB7_17CreateSessionArgsNtNtCs1G52j7fviBR_15nvim_oxi_luajit8pushable8Pushable4push0Bd_
FNDA:0,_RNvXs0_NtNtNtCs35aDzIjzncu_6hermes4nvim3api14create_sessionNtB5_17CreateSessionArgsNtNtCs1G52j7fviBR_15nvim_oxi_luajit8pushable8Pushable4push
FNDA:61,_RNCNvNtNtNtNtCs35aDzIjzncu_6hermes4nvim3api14create_session18session_args_tests26arb_mcp_server_type_string0Bb_
FNDA:1,_RNCNvNtNtNtNtCs35aDzIjzncu_6hermes4nvim3api14create_session18session_args_testss_30test_readme_example_compliance0Bb_
FNDA:2,_RNCNvNtNtNtNtCs35aDzIjzncu_6hermes4nvim3api14create_session18session_args_testss_30test_readme_example_compliances_0Bb_
FNDA:0,_RNCNCNvNtNtNtCs35aDzIjzncu_6hermes4nvim3api14create_session14create_session00Bb_
FNDA:0,_RNCNCNvNtNtNtCs35aDzIjzncu_6hermes4nvim3api14create_session14create_session0s_0Bb_
FNDA:0,_RNCNCNvXNtNtNtCs35aDzIjzncu_6hermes4nvim3api14create_sessionNtB6_17CreateSessionArgsNtNtCsjJN1CJkPTUm_14nvim_oxi_types10conversion10FromObject11from_object00Bc_
FNDA:0,_RNCNvNtNtNtCs35aDzIjzncu_6hermes4nvim3api14create_session14create_session0B9_
FNDA:0,_RNCNvXNtNtNtCs35aDzIjzncu_6hermes4nvim3api14create_sessionNtB4_17CreateSessionArgsNtNtCsjJN1CJkPTUm_14nvim_oxi_types10conversion10FromObject11from_object0Ba_
FNDA:0,_RNCNvXs_NtNtNtCs35aDzIjzncu_6hermes4nvim3api14create_sessionNtB6_17CreateSessionArgsNtNtCs1G52j7fviBR_15nvim_oxi_luajit8poppable8Poppable3pop0Bc_
FNDA:0,_RNvNtNtNtCs35aDzIjzncu_6hermes4nvim3api14create_session14create_session
FNDA:18,_RNvXNtNtNtCs35aDzIjzncu_6hermes4nvim3api14create_sessionNtB2_17CreateSessionArgsNtNtCsjJN1CJkPTUm_14nvim_oxi_types10conversion10FromObject11from_object
FNDA:0,_RNvXs_NtNtNtCs35aDzIjzncu_6hermes4nvim3api14create_sessionNtB4_17CreateSessionArgsNtNtCs1G52j7fviBR_15nvim_oxi_luajit8poppable8Poppable3pop
FNDA:2,_RNvNtNtNtNtCs35aDzIjzncu_6hermes4nvim3api14create_session18session_args_tests19round_trip_sse_dict
FNDA:6,_RNvNtNtNtNtCs35aDzIjzncu_6hermes4nvim3api14create_session18session_args_tests20create_explicit_args
FNDA:2,_RNvNtNtNtNtCs35aDzIjzncu_6hermes4nvim3api14create_session18session_args_tests20round_trip_http_dict
FNDA:2,_RNvNtNtNtNtCs35aDzIjzncu_6hermes4nvim3api14create_session18session_args_tests21round_trip_stdio_dict
FNDA:4,_RNvNtNtNtNtCs35aDzIjzncu_6hermes4nvim3api14create_session18session_args_tests25create_stdio_default_args
FNDA:1,_RNvNtNtNtNtCs35aDzIjzncu_6hermes4nvim3api14create_session18session_args_tests26arb_mcp_server_type_string
FNDA:1,_RNvNtNtNtNtCs35aDzIjzncu_6hermes4nvim3api14create_session18session_args_testss_21test_explicit_sse_url
FNDA:1,_RNvNtNtNtNtCs35aDzIjzncu_6hermes4nvim3api14create_session18session_args_testss_22test_explicit_http_url
FNDA:1,_RNvNtNtNtNtCs35aDzIjzncu_6hermes4nvim3api14create_session18session_args_testss_22test_explicit_sse_name
FNDA:1,_RNvNtNtNtNtCs35aDzIjzncu_6hermes4nvim3api14create_session18session_args_testss_23test_explicit_http_name
FNDA:1,_RNvNtNtNtNtCs35aDzIjzncu_6hermes4nvim3api14create_session18session_args_testss_23test_round_trip_sse_url
FNDA:1,_RNvNtNtNtNtCs35aDzIjzncu_6hermes4nvim3api14create_session18session_args_testss_24test_explicit_stdio_name
FNDA:1,_RNvNtNtNtNtCs35aDzIjzncu_6hermes4nvim3api14create_session18session_args_testss_24test_from_object_default
FNDA:1,_RNvNtNtNtNtCs35aDzIjzncu_6hermes4nvim3api14create_session18session_args_testss_24test_round_trip_http_url
FNDA:1,_RNvNtNtNtNtCs35aDzIjzncu_6hermes4nvim3api14create_session18session_args_testss_24test_round_trip_sse_name
FNDA:1,_RNvNtNtNtNtCs35aDzIjzncu_6hermes4nvim3api14create_session18session_args_testss_24test_stdio_defaults_name
FNDA:1,_RNvNtNtNtNtCs35aDzIjzncu_6hermes4nvim3api14create_session18session_args_testss_25test_round_trip_http_name
FNDA:1,_RNvNtNtNtNtCs35aDzIjzncu_6hermes4nvim3api14create_session18session_args_testss_26test_round_trip_stdio_name
FNDA:1,_RNvNtNtNtNtCs35aDzIjzncu_6hermes4nvim3api14create_session18session_args_testss_27test_explicit_stdio_command
FNDA:1,_RNvNtNtNtNtCs35aDzIjzncu_6hermes4nvim3api14create_session18session_args_testss_27test_stdio_defaults_command
FNDA:1,_RNvNtNtNtNtCs35aDzIjzncu_6hermes4nvim3api14create_session18session_args_testss_29test_round_trip_stdio_command
FNDA:1,_RNvNtNtNtNtCs35aDzIjzncu_6hermes4nvim3api14create_session18session_args_testss_30test_readme_example_compliance
FNDA:1,_RNvNtNtNtNtCs35aDzIjzncu_6hermes4nvim3api14create_session18session_args_testss_32test_mcp_server_type_display_sse
FNDA:1,_RNvNtNtNtNtCs35aDzIjzncu_6hermes4nvim3api14create_session18session_args_testss_32test_stdio_defaults_server_count
FNDA:1,_RNvNtNtNtNtCs35aDzIjzncu_6hermes4nvim3api14create_session18session_args_testss_33test_mcp_server_type_display_http
FNDA:1,_RNvNtNtNtNtCs35aDzIjzncu_6hermes4nvim3api14create_session18session_args_testss_34test_mcp_server_type_display_stdio
FNDA:1,_RNvNtNtNtNtCs35aDzIjzncu_6hermes4nvim3api14create_session18session_args_testss_36test_mcp_server_type_from_string_sse
FNDA:1,_RNvNtNtNtNtCs35aDzIjzncu_6hermes4nvim3api14create_session18session_args_testss_36test_stdio_defaults_is_configuration
FNDA:1,_RNvNtNtNtNtCs35aDzIjzncu_6hermes4nvim3api14create_session18session_args_testss_37test_mcp_server_type_from_string_http
FNDA:1,_RNvNtNtNtNtCs35aDzIjzncu_6hermes4nvim3api14create_session18session_args_testss_38test_mcp_server_type_from_string_stdio
FNDA:1,_RNvNtNtNtNtCs35aDzIjzncu_6hermes4nvim3api14create_session18session_args_testss_58test_mcp_server_type_from_string_unknown_defaults_to_stdio
FNF:48
FNH:35
DA:25,18
DA:26,18
DA:27,1
DA:28,17
DA:30,17
DA:32,17
DA:33,0
DA:34,0
DA:35,0
DA:36,0
DA:37,0
DA:40,17
DA:41,17
DA:43,17
DA:44,18
DA:48,0
DA:49,0
DA:50,0
DA:51,0
DA:55,0
DA:56,0
DA:57,0
DA:58,0
DA:59,0
DA:60,0
DA:61,0
DA:62,0
DA:63,0
DA:64,0
DA:65,0
DA:66,0
DA:67,0
DA:68,0
DA:69,0
DA:70,0
DA:71,0
DA:72,0
DA:73,0
DA:74,0
DA:75,0
DA:76,0
DA:77,0
DA:78,0
DA:79,0
DA:80,0
DA:81,0
DA:82,0
DA:83,0
DA:84,0
DA:85,0
DA:86,0
DA:88,0
DA:89,0
DA:90,0
DA:91,0
DA:92,0
DA:93,0
DA:94,0
DA:95,0
DA:96,0
DA:97,0
DA:98,0
DA:99,0
DA:100,0
DA:101,0
DA:102,0
DA:103,0
DA:104,0
DA:106,0
DA:107,0
DA:108,0
DA:109,0
DA:110,0
DA:111,0
DA:113,0
DA:115,0
DA:117,0
DA:118,0
DA:119,0
DA:120,0
DA:121,0
DA:122,0
DA:123,0
DA:124,0
DA:125,0
DA:126,0
DA:128,0
DA:130,0
DA:131,0
DA:132,0
DA:133,0
DA:134,0
DA:135,0
DA:136,0
DA:137,0
DA:138,0
DA:141,0
DA:142,0
DA:146,0
DA:147,0
DA:148,0
DA:149,0
DA:150,0
DA:151,0
DA:152,0
DA:153,0
DA:154,0
DA:155,0
DA:156,0
DA:157,0
DA:158,0
DA:159,0
DA:160,0
DA:161,0
DA:162,0
DA:165,0
DA:166,0
DA:167,0
DA:168,0
DA:169,0
DA:170,0
DA:171,0
DA:172,0
DA:173,0
DA:174,0
DA:175,0
DA:176,0
DA:177,0
DA:191,1
DA:192,1
DA:193,1
DA:194,1
DA:195,1
DA:196,1
DA:197,61
DA:199,1
DA:238,1
DA:239,1
DA:240,1
DA:243,1
DA:244,1
DA:245,1
DA:248,1
DA:249,1
DA:250,1
DA:253,1
DA:254,1
DA:255,1
DA:256,1
DA:259,1
DA:260,1
DA:261,1
DA:262,1
DA:265,1
DA:266,1
DA:267,1
DA:268,1
DA:271,1
DA:272,1
DA:273,1
DA:274,1
DA:277,1
DA:278,1
DA:279,1
DA:280,1
DA:281,1
DA:282,0
DA:284,1
DA:287,4
DA:288,4
DA:289,4
DA:290,4
DA:291,4
DA:293,4
DA:294,4
DA:296,4
DA:297,4
DA:298,4
DA:301,1
DA:302,1
DA:303,1
DA:304,1
DA:305,0
DA:307,1
DA:310,1
DA:311,1
DA:312,1
DA:313,1
DA:314,1
DA:316,0
DA:318,1
DA:321,1
DA:322,1
DA:323,1
DA:324,1
DA:325,1
DA:326,1
DA:327,1
DA:328,0
DA:331,0
DA:333,1
DA:336,1
DA:337,1
DA:338,1
DA:339,1
DA:340,1
DA:341,1
DA:342,1
DA:343,0
DA:346,0
DA:348,1
DA:351,6
DA:352,6
DA:353,6
DA:354,6
DA:355,6
DA:356,6
DA:358,6
DA:359,6
DA:360,6
DA:361,6
DA:363,6
DA:364,6
DA:365,6
DA:366,6
DA:367,6
DA:368,6
DA:369,6
DA:370,6
DA:372,6
DA:373,6
DA:374,6
DA:375,6
DA:377,6
DA:378,6
DA:379,6
DA:382,1
DA:383,1
DA:384,1
DA:385,1
DA:386,1
DA:387,1
DA:388,1
DA:389,0
DA:392,0
DA:394,1
DA:397,1
DA:398,1
DA:399,1
DA:400,1
DA:401,1
DA:402,1
DA:403,1
DA:404,0
DA:407,0
DA:409,1
DA:412,1
DA:413,1
DA:414,1
DA:415,1
DA:416,1
DA:417,1
DA:418,1
DA:419,0
DA:422,0
DA:424,1
DA:427,1
DA:428,1
DA:429,1
DA:430,1
DA:431,1
DA:432,1
DA:433,1
DA:434,0
DA:437,0
DA:439,1
DA:442,1
DA:443,1
DA:444,1
DA:445,1
DA:446,1
DA:447,1
DA:448,1
DA:449,0
DA:452,0
DA:454,1
DA:457,1
DA:458,1
DA:459,1
DA:460,1
DA:461,1
DA:462,1
DA:463,1
DA:464,0
DA:467,0
DA:469,1
DA:472,1
DA:478,1
DA:480,1
DA:481,1
DA:482,1
DA:483,1
DA:486,1
DA:487,1
DA:488,1
DA:489,1
DA:491,1
DA:492,1
DA:493,1
DA:494,1
DA:496,1
DA:497,1
DA:498,1
DA:499,1
DA:502,1
DA:503,1
DA:504,1
DA:505,1
DA:506,1
DA:508,1
DA:509,1
DA:510,1
DA:512,1
DA:514,1
DA:515,1
DA:517,1
DA:518,1
DA:519,1
DA:520,1
DA:523,1
DA:524,1
DA:525,1
DA:526,1
DA:529,1
DA:530,1
DA:533,2
DA:534,1
DA:536,0
DA:540,1
DA:541,1
DA:542,1
DA:543,1
DA:544,1
DA:545,1
DA:547,0
DA:550,0
DA:552,1
DA:556,2
DA:557,2
DA:558,2
DA:559,2
DA:560,2
DA:561,2
DA:562,2
DA:563,2
DA:564,2
DA:565,2
DA:567,2
DA:568,2
DA:569,2
DA:570,2
DA:571,2
DA:572,2
DA:573,2
DA:574,2
DA:575,2
DA:576,2
DA:578,2
DA:579,2
DA:580,2
DA:581,2
DA:582,2
DA:583,2
DA:584,2
DA:585,2
DA:586,2
DA:587,2
DA:590,1
DA:591,1
DA:592,1
DA:593,1
DA:594,1
DA:595,1
DA:596,1
DA:597,0
DA:600,0
DA:602,1
DA:605,1
DA:606,1
DA:607,1
DA:608,1
DA:609,1
DA:610,1
DA:611,1
DA:612,0
DA:615,0
DA:617,1
DA:620,1
DA:621,1
DA:622,1
DA:623,1
DA:624,1
DA:625,1
DA:626,1
DA:627,0
DA:630,0
DA:632,1
DA:635,1
DA:636,1
DA:637,1
DA:638,1
DA:639,1
DA:640,1
DA:641,1
DA:642,0
DA:645,0
DA:647,1
DA:650,1
DA:651,1
DA:652,1
DA:653,1
DA:654,1
DA:655,1
DA:656,1
DA:657,0
DA:660,0
DA:662,1
DA:665,1
DA:666,1
DA:667,1
DA:668,1
DA:669,1
DA:670,1
DA:671,1
DA:672,0
DA:675,0
DA:677,1
BRF:0
BRH:0
LF:451
LH:288
end_of_record
SF:/var/www/hermes/src/nvim/api/disconnect.rs
FN:101,_RNCNvXs0_NtNtNtCs35aDzIjzncu_6hermes4nvim3api10disconnectNtB7_14DisconnectArgsNtNtCs1G52j7fviBR_15nvim_oxi_luajit8pushable8Pushable4push0Bd_
FN:94,_RNvXs0_NtNtNtCs35aDzIjzncu_6hermes4nvim3api10disconnectNtB5_14DisconnectArgsNtNtCs1G52j7fviBR_15nvim_oxi_luajit8pushable8Pushable4push
FN:110,_RNvNtNtNtCs35aDzIjzncu_6hermes4nvim3api10disconnect10disconnect
FN:21,_RNvNtNtNtCs35aDzIjzncu_6hermes4nvim3api10disconnect22parse_assistant_string
FN:39,_RNvXNtNtNtCs35aDzIjzncu_6hermes4nvim3api10disconnectNtB2_14DisconnectArgsNtNtCsjJN1CJkPTUm_14nvim_oxi_types10conversion10FromObject11from_object
FN:81,_RNvXs_NtNtNtCs35aDzIjzncu_6hermes4nvim3api10disconnectNtB4_14DisconnectArgsNtNtCs1G52j7fviBR_15nvim_oxi_luajit8poppable8Poppable3pop
FN:114,_RNCNCNvNtNtNtCs35aDzIjzncu_6hermes4nvim3api10disconnect10disconnect00Bb_
FN:112,_RNCNvNtNtNtCs35aDzIjzncu_6hermes4nvim3api10disconnect10disconnect0B9_
FN:48,_RNCNvXNtNtNtCs35aDzIjzncu_6hermes4nvim3api10disconnectNtB4_14DisconnectArgsNtNtCsjJN1CJkPTUm_14nvim_oxi_types10conversion10FromObject11from_object0Ba_
FN:56,_RNCNvXNtNtNtCs35aDzIjzncu_6hermes4nvim3api10disconnectNtB4_14DisconnectArgsNtNtCsjJN1CJkPTUm_14nvim_oxi_types10conversion10FromObject11from_objects_0Ba_
FN:83,_RNCNvXs_NtNtNtCs35aDzIjzncu_6hermes4nvim3api10disconnectNtB6_14DisconnectArgsNtNtCs1G52j7fviBR_15nvim_oxi_luajit8poppable8Poppable3pop0Bc_
FN:134,_RNvNtNtNtNtCs35aDzIjzncu_6hermes4nvim3api10disconnect5tests18arb_assistant_name
FN:147,_RNvNtNtNtNtCs35aDzIjzncu_6hermes4nvim3api10disconnect5tests19arb_disconnect_args
FN:216,_RNvNtNtNtNtCs35aDzIjzncu_6hermes4nvim3api10disconnect5testss_35test_disconnect_args_default_is_all
FN:222,_RNvNtNtNtNtCs35aDzIjzncu_6hermes4nvim3api10disconnect5testss_35test_parse_assistant_string_copilot
FN:240,_RNvNtNtNtNtCs35aDzIjzncu_6hermes4nvim3api10disconnect5testss_35test_parse_assistant_string_invalid
FN:228,_RNvNtNtNtNtCs35aDzIjzncu_6hermes4nvim3api10disconnect5testss_36test_parse_assistant_string_opencode
FN:234,_RNvNtNtNtNtCs35aDzIjzncu_6hermes4nvim3api10disconnect5testss_44test_parse_assistant_string_case_insensitive
FN:161,_RNCNCNvNtNtNtNtCs35aDzIjzncu_6hermes4nvim3api10disconnect5tests19arb_disconnect_argss_00Bd_
FN:142,_RNCNvNtNtNtNtCs35aDzIjzncu_6hermes4nvim3api10disconnect5tests18arb_assistant_name0Bb_
FN:150,_RNCNvNtNtNtNtCs35aDzIjzncu_6hermes4nvim3api10disconnect5tests19arb_disconnect_args0Bb_
FN:158,_RNCNvNtNtNtNtCs35aDzIjzncu_6hermes4nvim3api10disconnect5tests19arb_disconnect_argss_0Bb_
FNDA:0,_RNCNvXs0_NtNtNtCs35aDzIjzncu_6hermes4nvim3api10disconnectNtB7_14DisconnectArgsNtNtCs1G52j7fviBR_15nvim_oxi_luajit8pushable8Pushable4push0Bd_
FNDA:0,_RNvXs0_NtNtNtCs35aDzIjzncu_6hermes4nvim3api10disconnectNtB5_14DisconnectArgsNtNtCs1G52j7fviBR_15nvim_oxi_luajit8pushable8Pushable4push
FNDA:0,_RNvNtNtNtCs35aDzIjzncu_6hermes4nvim3api10disconnect10disconnect
FNDA:4,_RNvNtNtNtCs35aDzIjzncu_6hermes4nvim3api10disconnect22parse_assistant_string
FNDA:0,_RNvXNtNtNtCs35aDzIjzncu_6hermes4nvim3api10disconnectNtB2_14DisconnectArgsNtNtCsjJN1CJkPTUm_14nvim_oxi_types10conversion10FromObject11from_object
FNDA:0,_RNvXs_NtNtNtCs35aDzIjzncu_6hermes4nvim3api10disconnectNtB4_14DisconnectArgsNtNtCs1G52j7fviBR_15nvim_oxi_luajit8poppable8Poppable3pop
FNDA:0,_RNCNCNvNtNtNtCs35aDzIjzncu_6hermes4nvim3api10disconnect10disconnect00Bb_
FNDA:0,_RNCNvNtNtNtCs35aDzIjzncu_6hermes4nvim3api10disconnect10disconnect0B9_
FNDA:0,_RNCNvXNtNtNtCs35aDzIjzncu_6hermes4nvim3api10disconnectNtB4_14DisconnectArgsNtNtCsjJN1CJkPTUm_14nvim_oxi_types10conversion10FromObject11from_object0Ba_
FNDA:0,_RNCNvXNtNtNtCs35aDzIjzncu_6hermes4nvim3api10disconnectNtB4_14DisconnectArgsNtNtCsjJN1CJkPTUm_14nvim_oxi_types10conversion10FromObject11from_objects_0Ba_
FNDA:0,_RNCNvXs_NtNtNtCs35aDzIjzncu_6hermes4nvim3api10disconnectNtB6_14DisconnectArgsNtNtCs1G52j7fviBR_15nvim_oxi_luajit8poppable8Poppable3pop0Bc_
FNDA:3,_RNvNtNtNtNtCs35aDzIjzncu_6hermes4nvim3api10disconnect5tests18arb_assistant_name
FNDA:1,_RNvNtNtNtNtCs35aDzIjzncu_6hermes4nvim3api10disconnect5tests19arb_disconnect_args
FNDA:1,_RNvNtNtNtNtCs35aDzIjzncu_6hermes4nvim3api10disconnect5testss_35test_disconnect_args_default_is_all
FNDA:1,_RNvNtNtNtNtCs35aDzIjzncu_6hermes4nvim3api10disconnect5testss_35test_parse_assistant_string_copilot
FNDA:1,_RNvNtNtNtNtCs35aDzIjzncu_6hermes4nvim3api10disconnect5testss_35test_parse_assistant_string_invalid
FNDA:1,_RNvNtNtNtNtCs35aDzIjzncu_6hermes4nvim3api10disconnect5testss_36test_parse_assistant_string_opencode
FNDA:1,_RNvNtNtNtNtCs35aDzIjzncu_6hermes4nvim3api10disconnect5testss_44test_parse_assistant_string_case_insensitive
FNDA:177,_RNCNCNvNtNtNtNtCs35aDzIjzncu_6hermes4nvim3api10disconnect5tests19arb_disconnect_argss_00Bd_
FNDA:89,_RNCNvNtNtNtNtCs35aDzIjzncu_6hermes4nvim3api10disconnect5tests18arb_assistant_name0Bb_
FNDA:95,_RNCNvNtNtNtNtCs35aDzIjzncu_6hermes4nvim3api10disconnect5tests19arb_disconnect_args0Bb_
FNDA:81,_RNCNvNtNtNtNtCs35aDzIjzncu_6hermes4nvim3api10disconnect5tests19arb_disconnect_argss_0Bb_
FNF:22
FNH:12
DA:21,4
DA:22,4
DA:23,4
DA:24,4
DA:25,4
DA:26,2
DA:27,1
DA:28,1
DA:29,1
DA:30,1
DA:31,1
DA:32,1
DA:34,4
DA:39,0
DA:40,0
DA:41,0
DA:43,0
DA:44,0
DA:45,0
DA:46,0
DA:48,0
DA:49,0
DA:50,0
DA:53,0
DA:54,0
DA:55,0
DA:56,0
DA:57,0
DA:58,0
DA:60,0
DA:61,0
DA:62,0
DA:63,0
DA:65,0
DA:66,0
DA:67,0
DA:68,0
DA:69,0
DA:70,0
DA:72,0
DA:73,0
DA:74,0
DA:75,0
DA:77,0
DA:81,0
DA:82,0
DA:83,0
DA:84,0
DA:85,0
DA:86,0
DA:87,0
DA:88,0
DA:89,0
DA:90,0
DA:94,0
DA:96,0
DA:97,0
DA:98,0
DA:99,0
DA:100,0
DA:101,0
DA:102,0
DA:103,0
DA:106,0
DA:110,0
DA:111,0
DA:112,0
DA:113,0
DA:114,0
DA:115,0
DA:116,0
DA:117,0
DA:118,0
DA:119,0
DA:120,0
DA:121,0
DA:122,0
DA:123,0
DA:124,0
DA:125,0
DA:126,0
DA:134,3
DA:135,3
DA:136,3
DA:137,3
DA:138,3
DA:139,3
DA:140,3
DA:141,3
DA:142,89
DA:144,3
DA:147,1
DA:148,1
DA:149,1
DA:150,95
DA:151,95
DA:153,76
DA:155,19
DA:157,95
DA:158,81
DA:159,81
DA:160,81
DA:161,177
DA:163,151
DA:165,26
DA:166,177
DA:167,81
DA:168,81
DA:169,14
DA:171,67
DA:173,81
DA:175,1
DA:216,1
DA:217,1
DA:218,1
DA:219,1
DA:222,1
DA:223,1
DA:224,1
DA:225,1
DA:228,1
DA:229,1
DA:230,1
DA:231,1
DA:234,1
DA:235,1
DA:236,1
DA:237,1
DA:240,1
DA:241,1
DA:242,1
DA:243,1
BRF:0
BRH:0
LF:142
LH:68
end_of_record
SF:/var/www/hermes/src/nvim/api/load_session.rs
FN:59,_RNvXs0_NtNtNtCs35aDzIjzncu_6hermes4nvim3api12load_sessionNtB5_17LoadSessionConfigNtNtCs1G52j7fviBR_15nvim_oxi_luajit8pushable8Pushable4push
FN:125,_RNCNvMNtNtNtNtCs35aDzIjzncu_6hermes4nvim3api12load_session5testsNtB6_17LoadSessionConfig17default_with_root0Bc_
FN:134,_RNvNtNtNtNtCs35aDzIjzncu_6hermes4nvim3api12load_session5tests18create_test_config
FN:146,_RNvNtNtNtNtCs35aDzIjzncu_6hermes4nvim3api12load_session5testss_27test_config_default_has_cwd
FN:153,_RNvNtNtNtNtCs35aDzIjzncu_6hermes4nvim3api12load_session5testss_27test_config_with_custom_cwd
FN:160,_RNvNtNtNtNtCs35aDzIjzncu_6hermes4nvim3api12load_session5testss_28test_tuple_type_alias_exists
FN:124,_RNvMNtNtNtNtCs35aDzIjzncu_6hermes4nvim3api12load_session5testsNtB4_17LoadSessionConfig17default_with_root
FN:74,_RNvNtNtNtCs35aDzIjzncu_6hermes4nvim3api12load_session12load_session
FN:26,_RNvXNtNtNtCs35aDzIjzncu_6hermes4nvim3api12load_sessionNtB2_17LoadSessionConfigNtNtCsjJN1CJkPTUm_14nvim_oxi_types10conversion10FromObject11from_object
FN:52,_RNvXs_NtNtNtCs35aDzIjzncu_6hermes4nvim3api12load_sessionNtB4_17LoadSessionConfigNtNtCs1G52j7fviBR_15nvim_oxi_luajit8poppable8Poppable3pop
FN:93,_RNCNCNCNvNtNtNtCs35aDzIjzncu_6hermes4nvim3api12load_session12load_session000Bd_
FN:92,_RNCNCNvNtNtNtCs35aDzIjzncu_6hermes4nvim3api12load_session12load_session00Bb_
FN:108,_RNCNCNvNtNtNtCs35aDzIjzncu_6hermes4nvim3api12load_session12load_session0s_0Bb_
FN:33,_RNCNCNvXNtNtNtCs35aDzIjzncu_6hermes4nvim3api12load_sessionNtB6_17LoadSessionConfigNtNtCsjJN1CJkPTUm_14nvim_oxi_types10conversion10FromObject11from_object00Bc_
FN:79,_RNCNvNtNtNtCs35aDzIjzncu_6hermes4nvim3api12load_session12load_session0B9_
FN:29,_RNCNvXNtNtNtCs35aDzIjzncu_6hermes4nvim3api12load_sessionNtB4_17LoadSessionConfigNtNtCsjJN1CJkPTUm_14nvim_oxi_types10conversion10FromObject11from_object0Ba_
FN:41,_RNCNvXNtNtNtCs35aDzIjzncu_6hermes4nvim3api12load_sessionNtB4_17LoadSessionConfigNtNtCsjJN1CJkPTUm_14nvim_oxi_types10conversion10FromObject11from_objects_0Ba_
FN:54,_RNCNvXs_NtNtNtCs35aDzIjzncu_6hermes4nvim3api12load_sessionNtB6_17LoadSessionConfigNtNtCs1G52j7fviBR_15nvim_oxi_luajit8poppable8Poppable3pop0Bc_
FNDA:0,_RNvXs0_NtNtNtCs35aDzIjzncu_6hermes4nvim3api12load_sessionNtB5_17LoadSessionConfigNtNtCs1G52j7fviBR_15nvim_oxi_luajit8pushable8Pushable4push
FNDA:0,_RNCNvMNtNtNtNtCs35aDzIjzncu_6hermes4nvim3api12load_session5testsNtB6_17LoadSessionConfig17default_with_root0Bc_
FNDA:1,_RNvNtNtNtNtCs35aDzIjzncu_6hermes4nvim3api12load_session5tests18create_test_config
FNDA:1,_RNvNtNtNtNtCs35aDzIjzncu_6hermes4nvim3api12load_session5testss_27test_config_default_has_cwd
FNDA:1,_RNvNtNtNtNtCs35aDzIjzncu_6hermes4nvim3api12load_session5testss_27test_config_with_custom_cwd
FNDA:1,_RNvNtNtNtNtCs35aDzIjzncu_6hermes4nvim3api12load_session5testss_28test_tuple_type_alias_exists
FNDA:1,_RNvMNtNtNtNtCs35aDzIjzncu_6hermes4nvim3api12load_session5testsNtB4_17LoadSessionConfig17default_with_root
FNDA:0,_RNvNtNtNtCs35aDzIjzncu_6hermes4nvim3api12load_session12load_session
FNDA:0,_RNvXNtNtNtCs35aDzIjzncu_6hermes4nvim3api12load_sessionNtB2_17LoadSessionConfigNtNtCsjJN1CJkPTUm_14nvim_oxi_types10conversion10FromObject11from_object
FNDA:0,_RNvXs_NtNtNtCs35aDzIjzncu_6hermes4nvim3api12load_sessionNtB4_17LoadSessionConfigNtNtCs1G52j7fviBR_15nvim_oxi_luajit8poppable8Poppable3pop
FNDA:0,_RNCNCNCNvNtNtNtCs35aDzIjzncu_6hermes4nvim3api12load_session12load_session000Bd_
FNDA:0,_RNCNCNvNtNtNtCs35aDzIjzncu_6hermes4nvim3api12load_session12load_session00Bb_
FNDA:0,_RNCNCNvNtNtNtCs35aDzIjzncu_6hermes4nvim3api12load_session12load_session0s_0Bb_
FNDA:0,_RNCNCNvXNtNtNtCs35aDzIjzncu_6hermes4nvim3api12load_sessionNtB6_17LoadSessionConfigNtNtCsjJN1CJkPTUm_14nvim_oxi_types10conversion10FromObject11from_object00Bc_
FNDA:0,_RNCNvNtNtNtCs35aDzIjzncu_6hermes4nvim3api12load_session12load_session0B9_
FNDA:0,_RNCNvXNtNtNtCs35aDzIjzncu_6hermes4nvim3api12load_sessionNtB4_17LoadSessionConfigNtNtCsjJN1CJkPTUm_14nvim_oxi_types10conversion10FromObject11from_object0Ba_
FNDA:0,_RNCNvXNtNtNtCs35aDzIjzncu_6hermes4nvim3api12load_sessionNtB4_17LoadSessionConfigNtNtCsjJN1CJkPTUm_14nvim_oxi_types10conversion10FromObject11from_objects_0Ba_
FNDA:0,_RNCNvXs_NtNtNtCs35aDzIjzncu_6hermes4nvim3api12load_sessionNtB6_17LoadSessionConfigNtNtCs1G52j7fviBR_15nvim_oxi_luajit8poppable8Poppable3pop0Bc_
FNF:18
FNH:5
DA:26,0
DA:27,0
DA:29,0
DA:30,0
DA:31,0
DA:32,0
DA:33,0
DA:34,0
DA:36,0
DA:37,0
DA:38,0
DA:39,0
DA:41,0
DA:42,0
DA:44,0
DA:45,0
DA:46,0
DA:47,0
DA:48,0
DA:52,0
DA:53,0
DA:54,0
DA:55,0
DA:59,0
DA:60,0
DA:61,0
DA:62,0
DA:63,0
DA:64,0
DA:65,0
DA:66,0
DA:67,0
DA:68,0
DA:74,0
DA:75,0
DA:76,0
DA:77,0
DA:78,0
DA:79,0
DA:80,0
DA:85,0
DA:86,0
DA:87,0
DA:88,0
DA:90,0
DA:91,0
DA:92,0
DA:93,0
DA:94,0
DA:98,0
DA:99,0
DA:100,0
DA:101,0
DA:103,0
DA:105,0
DA:106,0
DA:107,0
DA:108,0
DA:109,0
DA:110,0
DA:111,0
DA:112,0
DA:113,0
DA:114,0
DA:115,0
DA:116,0
DA:117,0
DA:124,1
DA:125,1
DA:126,1
DA:127,1
DA:128,1
DA:129,1
DA:130,1
DA:131,1
DA:134,1
DA:135,1
DA:136,1
DA:137,1
DA:138,1
DA:139,1
DA:141,0
DA:143,1
DA:146,1
DA:147,1
DA:148,1
DA:149,1
DA:150,1
DA:153,1
DA:154,1
DA:155,1
DA:156,1
DA:157,1
DA:160,1
DA:163,1
DA:164,1
BRF:0
BRH:0
LF:106
LH:28
end_of_record
SF:/var/www/hermes/src/nvim/api/mcp_servers.rs
FN:107,_RNvNtNtNtCs35aDzIjzncu_6hermes4nvim3api11mcp_servers16parse_sse_server
FN:91,_RNvNtNtNtCs35aDzIjzncu_6hermes4nvim3api11mcp_servers17parse_http_server
FN:36,_RNvNtNtNtCs35aDzIjzncu_6hermes4nvim3api11mcp_servers17parse_mcp_servers
FN:70,_RNvNtNtNtCs35aDzIjzncu_6hermes4nvim3api11mcp_servers18parse_http_headers
FN:123,_RNvNtNtNtCs35aDzIjzncu_6hermes4nvim3api11mcp_servers18parse_stdio_server
FN:16,_RNvXNtNtNtCs35aDzIjzncu_6hermes4nvim3api11mcp_serversNtB2_13McpServerTypeNtNtCs4kUJL3MZFFz_4core3fmt7Display3fmt
FN:26,_RNvXs_NtNtNtCs35aDzIjzncu_6hermes4nvim3api11mcp_serversNtB4_13McpServerTypeINtNtCs4kUJL3MZFFz_4core7convert4FromNtNtCsauO83Ko6oyK_5alloc6string6StringE4from
FN:50,_RNCNCNCNvNtNtNtCs35aDzIjzncu_6hermes4nvim3api11mcp_servers17parse_mcp_servers000Bd_
FN:131,_RNCNCNCNvNtNtNtCs35aDzIjzncu_6hermes4nvim3api11mcp_servers18parse_stdio_server000Bd_
FN:47,_RNCNCNvNtNtNtCs35aDzIjzncu_6hermes4nvim3api11mcp_servers17parse_mcp_servers00Bb_
FN:80,_RNCNCNvNtNtNtCs35aDzIjzncu_6hermes4nvim3api11mcp_servers18parse_http_headers00Bb_
FN:131,_RNCNCNvNtNtNtCs35aDzIjzncu_6hermes4nvim3api11mcp_servers18parse_stdio_server00Bb_
FN:148,_RNCNCNvNtNtNtCs35aDzIjzncu_6hermes4nvim3api11mcp_servers18parse_stdio_servers_00Bb_
FN:110,_RNCNvNtNtNtCs35aDzIjzncu_6hermes4nvim3api11mcp_servers16parse_sse_server0B9_
FN:94,_RNCNvNtNtNtCs35aDzIjzncu_6hermes4nvim3api11mcp_servers17parse_http_server0B9_
FN:42,_RNCNvNtNtNtCs35aDzIjzncu_6hermes4nvim3api11mcp_servers17parse_mcp_servers0B9_
FN:77,_RNCNvNtNtNtCs35aDzIjzncu_6hermes4nvim3api11mcp_servers18parse_http_headers0B9_
FN:127,_RNCNvNtNtNtCs35aDzIjzncu_6hermes4nvim3api11mcp_servers18parse_stdio_server0B9_
FN:141,_RNCNvNtNtNtCs35aDzIjzncu_6hermes4nvim3api11mcp_servers18parse_stdio_servers_0B9_
FN:186,_RNCNvNtNtNtNtCs35aDzIjzncu_6hermes4nvim3api11mcp_servers5tests26arb_mcp_server_type_string0Bb_
FN:452,_RNCNvNtNtNtNtCs35aDzIjzncu_6hermes4nvim3api11mcp_servers5testss_30test_readme_example_compliance0Bb_
FN:456,_RNCNvNtNtNtNtCs35aDzIjzncu_6hermes4nvim3api11mcp_servers5testss_30test_readme_example_compliances_0Bb_
FN:266,_RNvNtNtNtNtCs35aDzIjzncu_6hermes4nvim3api11mcp_servers5tests17create_stdio_dict
FN:180,_RNvNtNtNtNtCs35aDzIjzncu_6hermes4nvim3api11mcp_servers5tests26arb_mcp_server_type_string
FN:310,_RNvNtNtNtNtCs35aDzIjzncu_6hermes4nvim3api11mcp_servers5tests28create_explicit_servers_dict
FN:288,_RNvNtNtNtNtCs35aDzIjzncu_6hermes4nvim3api11mcp_servers5testss_21test_parse_stdio_name
FN:299,_RNvNtNtNtNtCs35aDzIjzncu_6hermes4nvim3api11mcp_servers5testss_24test_parse_stdio_command
FN:351,_RNvNtNtNtNtCs35aDzIjzncu_6hermes4nvim3api11mcp_servers5testss_27test_parse_explicit_sse_url
FN:373,_RNvNtNtNtNtCs35aDzIjzncu_6hermes4nvim3api11mcp_servers5testss_28test_parse_explicit_http_url
FN:340,_RNvNtNtNtNtCs35aDzIjzncu_6hermes4nvim3api11mcp_servers5testss_28test_parse_explicit_sse_name
FN:362,_RNvNtNtNtNtCs35aDzIjzncu_6hermes4nvim3api11mcp_servers5testss_29test_parse_explicit_http_name
FN:384,_RNvNtNtNtNtCs35aDzIjzncu_6hermes4nvim3api11mcp_servers5testss_30test_parse_explicit_stdio_name
FN:406,_RNvNtNtNtNtCs35aDzIjzncu_6hermes4nvim3api11mcp_servers5testss_30test_readme_example_compliance
FN:237,_RNvNtNtNtNtCs35aDzIjzncu_6hermes4nvim3api11mcp_servers5testss_32test_mcp_server_type_display_sse
FN:232,_RNvNtNtNtNtCs35aDzIjzncu_6hermes4nvim3api11mcp_servers5testss_33test_mcp_server_type_display_http
FN:395,_RNvNtNtNtNtCs35aDzIjzncu_6hermes4nvim3api11mcp_servers5testss_33test_parse_explicit_stdio_command
FN:227,_RNvNtNtNtNtCs35aDzIjzncu_6hermes4nvim3api11mcp_servers5testss_34test_mcp_server_type_display_stdio
FN:254,_RNvNtNtNtNtCs35aDzIjzncu_6hermes4nvim3api11mcp_servers5testss_36test_mcp_server_type_from_string_sse
FN:248,_RNvNtNtNtNtCs35aDzIjzncu_6hermes4nvim3api11mcp_servers5testss_37test_mcp_server_type_from_string_http
FN:242,_RNvNtNtNtNtCs35aDzIjzncu_6hermes4nvim3api11mcp_servers5testss_38test_mcp_server_type_from_string_stdio
FN:279,_RNvNtNtNtNtCs35aDzIjzncu_6hermes4nvim3api11mcp_servers5testss_42test_parse_stdio_defaults_is_configuration
FN:260,_RNvNtNtNtNtCs35aDzIjzncu_6hermes4nvim3api11mcp_servers5testss_58test_mcp_server_type_from_string_unknown_defaults_to_stdio
FNDA:14,_RNvNtNtNtCs35aDzIjzncu_6hermes4nvim3api11mcp_servers16parse_sse_server
FNDA:16,_RNvNtNtNtCs35aDzIjzncu_6hermes4nvim3api11mcp_servers17parse_http_server
FNDA:27,_RNvNtNtNtCs35aDzIjzncu_6hermes4nvim3api11mcp_servers17parse_mcp_servers
FNDA:30,_RNvNtNtNtCs35aDzIjzncu_6hermes4nvim3api11mcp_servers18parse_http_headers
FNDA:23,_RNvNtNtNtCs35aDzIjzncu_6hermes4nvim3api11mcp_servers18parse_stdio_server
FNDA:6,_RNvXNtNtNtCs35aDzIjzncu_6hermes4nvim3api11mcp_serversNtB2_13McpServerTypeNtNtCs4kUJL3MZFFz_4core3fmt7Display3fmt
FNDA:1590,_RNvXs_NtNtNtCs35aDzIjzncu_6hermes4nvim3api11mcp_serversNtB4_13McpServerTypeINtNtCs4kUJL3MZFFz_4core7convert4FromNtNtCsauO83Ko6oyK_5alloc6string6StringE4from
FNDA:46,_RNCNCNCNvNtNtNtCs35aDzIjzncu_6hermes4nvim3api11mcp_servers17parse_mcp_servers000Bd_
FNDA:24,_RNCNCNCNvNtNtNtCs35aDzIjzncu_6hermes4nvim3api11mcp_servers18parse_stdio_server000Bd_
FNDA:46,_RNCNCNvNtNtNtCs35aDzIjzncu_6hermes4nvim3api11mcp_servers17parse_mcp_servers00Bb_
FNDA:4,_RNCNCNvNtNtNtCs35aDzIjzncu_6hermes4nvim3api11mcp_servers18parse_http_headers00Bb_
FNDA:24,_RNCNCNvNtNtNtCs35aDzIjzncu_6hermes4nvim3api11mcp_servers18parse_stdio_server00Bb_
FNDA:2,_RNCNCNvNtNtNtCs35aDzIjzncu_6hermes4nvim3api11mcp_servers18parse_stdio_servers_00Bb_
FNDA:0,_RNCNvNtNtNtCs35aDzIjzncu_6hermes4nvim3api11mcp_servers16parse_sse_server0B9_
FNDA:0,_RNCNvNtNtNtCs35aDzIjzncu_6hermes4nvim3api11mcp_servers17parse_http_server0B9_
FNDA:53,_RNCNvNtNtNtCs35aDzIjzncu_6hermes4nvim3api11mcp_servers17parse_mcp_servers0B9_
FNDA:4,_RNCNvNtNtNtCs35aDzIjzncu_6hermes4nvim3api11mcp_servers18parse_http_headers0B9_
FNDA:12,_RNCNvNtNtNtCs35aDzIjzncu_6hermes4nvim3api11mcp_servers18parse_stdio_server0B9_
FNDA:2,_RNCNvNtNtNtCs35aDzIjzncu_6hermes4nvim3api11mcp_servers18parse_stdio_servers_0B9_
FNDA:58,_RNCNvNtNtNtNtCs35aDzIjzncu_6hermes4nvim3api11mcp_servers5tests26arb_mcp_server_type_string0Bb_
FNDA:1,_RNCNvNtNtNtNtCs35aDzIjzncu_6hermes4nvim3api11mcp_servers5testss_30test_readme_example_compliance0Bb_
FNDA:2,_RNCNvNtNtNtNtCs35aDzIjzncu_6hermes4nvim3api11mcp_servers5testss_30test_readme_example_compliances_0Bb_
FNDA:3,_RNvNtNtNtNtCs35aDzIjzncu_6hermes4nvim3api11mcp_servers5tests17create_stdio_dict
FNDA:1,_RNvNtNtNtNtCs35aDzIjzncu_6hermes4nvim3api11mcp_servers5tests26arb_mcp_server_type_string
FNDA:6,_RNvNtNtNtNtCs35aDzIjzncu_6hermes4nvim3api11mcp_servers5tests28create_explicit_servers_dict
FNDA:1,_RNvNtNtNtNtCs35aDzIjzncu_6hermes4nvim3api11mcp_servers5testss_21test_parse_stdio_name
FNDA:1,_RNvNtNtNtNtCs35aDzIjzncu_6hermes4nvim3api11mcp_servers5testss_24test_parse_stdio_command
FNDA:1,_RNvNtNtNtNtCs35aDzIjzncu_6hermes4nvim3api11mcp_servers5testss_27test_parse_explicit_sse_url
FNDA:1,_RNvNtNtNtNtCs35aDzIjzncu_6hermes4nvim3api11mcp_servers5testss_28test_parse_explicit_http_url
FNDA:1,_RNvNtNtNtNtCs35aDzIjzncu_6hermes4nvim3api11mcp_servers5testss_28test_parse_explicit_sse_name
FNDA:1,_RNvNtNtNtNtCs35aDzIjzncu_6hermes4nvim3api11mcp_servers5testss_29test_parse_explicit_http_name
FNDA:1,_RNvNtNtNtNtCs35aDzIjzncu_6hermes4nvim3api11mcp_servers5testss_30test_parse_explicit_stdio_name
FNDA:1,_RNvNtNtNtNtCs35aDzIjzncu_6hermes4nvim3api11mcp_servers5testss_30test_readme_example_compliance
FNDA:1,_RNvNtNtNtNtCs35aDzIjzncu_6hermes4nvim3api11mcp_servers5testss_32test_mcp_server_type_display_sse
FNDA:1,_RNvNtNtNtNtCs35aDzIjzncu_6hermes4nvim3api11mcp_servers5testss_33test_mcp_server_type_display_http
FNDA:1,_RNvNtNtNtNtCs35aDzIjzncu_6hermes4nvim3api11mcp_servers5testss_33test_parse_explicit_stdio_command
FNDA:1,_RNvNtNtNtNtCs35aDzIjzncu_6hermes4nvim3api11mcp_servers5testss_34test_mcp_server_type_display_stdio
FNDA:1,_RNvNtNtNtNtCs35aDzIjzncu_6hermes4nvim3api11mcp_servers5testss_36test_mcp_server_type_from_string_sse
FNDA:1,_RNvNtNtNtNtCs35aDzIjzncu_6hermes4nvim3api11mcp_servers5testss_37test_mcp_server_type_from_string_http
FNDA:1,_RNvNtNtNtNtCs35aDzIjzncu_6hermes4nvim3api11mcp_servers5testss_38test_mcp_server_type_from_string_stdio
FNDA:1,_RNvNtNtNtNtCs35aDzIjzncu_6hermes4nvim3api11mcp_servers5testss_42test_parse_stdio_defaults_is_configuration
FNDA:1,_RNvNtNtNtNtCs35aDzIjzncu_6hermes4nvim3api11mcp_servers5testss_58test_mcp_server_type_from_string_unknown_defaults_to_stdio
FNF:42
FNH:40
DA:16,6
DA:17,6
DA:18,2
DA:19,2
DA:20,2
DA:22,6
DA:26,1590
DA:27,1590
DA:28,1590
DA:29,1298
DA:30,992
DA:32,1590
DA:36,27
DA:37,27
DA:38,27
DA:40,27
DA:41,27
DA:42,53
DA:43,53
DA:44,53
DA:45,53
DA:46,53
DA:47,53
DA:48,46
DA:49,46
DA:50,46
DA:51,46
DA:52,46
DA:53,53
DA:55,53
DA:56,16
DA:57,14
DA:58,23
DA:60,53
DA:61,27
DA:63,27
DA:65,0
DA:66,0
DA:68,27
DA:70,30
DA:71,30
DA:72,2
DA:74,2
DA:75,2
DA:76,2
DA:77,4
DA:78,4
DA:80,4
DA:81,4
DA:82,4
DA:83,4
DA:84,4
DA:85,4
DA:86,2
DA:87,28
DA:88,28
DA:89,30
DA:91,16
DA:92,16
DA:93,16
DA:94,16
DA:95,16
DA:96,16
DA:97,16
DA:99,16
DA:100,16
DA:101,16
DA:102,2
DA:103,14
DA:104,16
DA:105,16
DA:107,14
DA:108,14
DA:109,14
DA:110,14
DA:111,14
DA:112,14
DA:113,14
DA:115,14
DA:116,14
DA:117,14
DA:118,0
DA:119,14
DA:120,14
DA:121,14
DA:123,23
DA:124,23
DA:125,23
DA:126,23
DA:127,23
DA:128,12
DA:129,12
DA:130,12
DA:131,24
DA:132,12
DA:134,0
DA:136,12
DA:137,23
DA:139,23
DA:140,23
DA:141,23
DA:143,2
DA:144,2
DA:146,2
DA:147,2
DA:148,2
DA:149,2
DA:150,2
DA:151,2
DA:152,2
DA:153,2
DA:154,2
DA:155,2
DA:156,2
DA:159,0
DA:161,2
DA:162,23
DA:164,23
DA:165,23
DA:166,23
DA:167,23
DA:168,23
DA:169,23
DA:180,1
DA:181,1
DA:182,1
DA:183,1
DA:184,1
DA:185,1
DA:186,58
DA:188,1
DA:227,1
DA:228,1
DA:229,1
DA:232,1
DA:233,1
DA:234,1
DA:237,1
DA:238,1
DA:239,1
DA:242,1
DA:243,1
DA:244,1
DA:245,1
DA:248,1
DA:249,1
DA:250,1
DA:251,1
DA:254,1
DA:255,1
DA:256,1
DA:257,1
DA:260,1
DA:261,1
DA:262,1
DA:263,1
DA:266,3
DA:267,3
DA:268,3
DA:269,3
DA:270,3
DA:272,3
DA:273,3
DA:275,3
DA:276,3
DA:279,1
DA:280,1
DA:281,1
DA:282,1
DA:283,1
DA:284,1
DA:285,1
DA:288,1
DA:289,1
DA:290,1
DA:291,1
DA:292,1
DA:293,1
DA:294,0
DA:296,1
DA:299,1
DA:300,1
DA:301,1
DA:302,1
DA:303,1
DA:304,1
DA:305,0
DA:307,1
DA:310,6
DA:311,6
DA:312,6
DA:313,6
DA:314,6
DA:315,6
DA:317,6
DA:318,6
DA:319,6
DA:320,6
DA:322,6
DA:323,6
DA:324,6
DA:325,6
DA:326,6
DA:327,6
DA:328,6
DA:329,6
DA:331,6
DA:332,6
DA:333,6
DA:334,6
DA:336,6
DA:337,6
DA:340,1
DA:341,1
DA:342,1
DA:343,1
DA:344,1
DA:345,1
DA:346,0
DA:348,1
DA:351,1
DA:352,1
DA:353,1
DA:354,1
DA:355,1
DA:356,1
DA:357,0
DA:359,1
DA:362,1
DA:363,1
DA:364,1
DA:365,1
DA:366,1
DA:367,1
DA:368,0
DA:370,1
DA:373,1
DA:374,1
DA:375,1
DA:376,1
DA:377,1
DA:378,1
DA:379,0
DA:381,1
DA:384,1
DA:385,1
DA:386,1
DA:387,1
DA:388,1
DA:389,1
DA:390,0
DA:392,1
DA:395,1
DA:396,1
DA:397,1
DA:398,1
DA:399,1
DA:400,1
DA:401,0
DA:403,1
DA:406,1
DA:408,1
DA:410,1
DA:411,1
DA:412,1
DA:413,1
DA:416,1
DA:417,1
DA:418,1
DA:419,1
DA:421,1
DA:422,1
DA:423,1
DA:424,1
DA:426,1
DA:427,1
DA:428,1
DA:429,1
DA:432,1
DA:433,1
DA:434,1
DA:435,1
DA:436,1
DA:438,1
DA:440,1
DA:442,1
DA:443,1
DA:446,1
DA:447,1
DA:448,1
DA:449,1
DA:452,1
DA:453,1
DA:456,2
DA:457,1
DA:459,0
DA:463,1
DA:464,1
DA:465,1
DA:466,1
DA:467,1
DA:468,1
DA:470,0
DA:472,1
BRF:0
BRH:0
LF:319
LH:302
end_of_record
SF:/var/www/hermes/src/nvim/api/prompt.rs
FN:313,_RNCNCNvXs5_NtNtNtCs35aDzIjzncu_6hermes4nvim3api6promptNtB9_13PromptContentNtNtCs1G52j7fviBR_15nvim_oxi_luajit8pushable8Pushable4push00Bf_
FN:172,_RNCNvXs0_NtNtNtCs35aDzIjzncu_6hermes4nvim3api6promptNtB7_16ContentBlockTypeNtNtCs1G52j7fviBR_15nvim_oxi_luajit8poppable8Poppable3pop0Bd_
FN:312,_RNCNvXs5_NtNtNtCs35aDzIjzncu_6hermes4nvim3api6promptNtB7_13PromptContentNtNtCs1G52j7fviBR_15nvim_oxi_luajit8pushable8Pushable4push0Bd_
FN:170,_RNvXs0_NtNtNtCs35aDzIjzncu_6hermes4nvim3api6promptNtB5_16ContentBlockTypeNtNtCs1G52j7fviBR_15nvim_oxi_luajit8poppable8Poppable3pop
FN:177,_RNvXs1_NtNtNtCs35aDzIjzncu_6hermes4nvim3api6promptNtB5_16ContentBlockTypeNtNtCs1G52j7fviBR_15nvim_oxi_luajit8pushable8Pushable4push
FN:305,_RNvXs5_NtNtNtCs35aDzIjzncu_6hermes4nvim3api6promptNtB5_13PromptContentNtNtCs1G52j7fviBR_15nvim_oxi_luajit8pushable8Pushable4push
FN:468,_RNvNtNtNtNtNtCs35aDzIjzncu_6hermes4nvim3api6prompt5tests20proptest_conversions14arb_uri_string
FN:473,_RNvNtNtNtNtNtCs35aDzIjzncu_6hermes4nvim3api6prompt5tests20proptest_conversions15arb_name_string
FN:463,_RNvNtNtNtNtNtCs35aDzIjzncu_6hermes4nvim3api6prompt5tests20proptest_conversions15arb_text_string
FN:513,_RNCNCNvNtNtNtNtNtCs35aDzIjzncu_6hermes4nvim3api6prompt5tests20proptest_conversionss_49test_parse_multiple_content_from_lua_never_panicss_00Bf_
FN:469,_RNCNvNtNtNtNtNtCs35aDzIjzncu_6hermes4nvim3api6prompt5tests20proptest_conversions14arb_uri_string0Bd_
FN:474,_RNCNvNtNtNtNtNtCs35aDzIjzncu_6hermes4nvim3api6prompt5tests20proptest_conversions15arb_name_string0Bd_
FN:464,_RNCNvNtNtNtNtNtCs35aDzIjzncu_6hermes4nvim3api6prompt5tests20proptest_conversions15arb_text_string0Bd_
FN:266,_RNvMs2_NtNtNtCs35aDzIjzncu_6hermes4nvim3api6promptNtB5_13PromptContent8into_vec
FN:26,_RNvNtNtNtCs35aDzIjzncu_6hermes4nvim3api6prompt15optional_string
FN:16,_RNvNtNtNtCs35aDzIjzncu_6hermes4nvim3api6prompt15required_string
FN:326,_RNvNtNtNtCs35aDzIjzncu_6hermes4nvim3api6prompt6prompt
FN:275,_RNvXs3_NtNtNtCs35aDzIjzncu_6hermes4nvim3api6promptNtB5_13PromptContentNtNtCsjJN1CJkPTUm_14nvim_oxi_types10conversion10FromObject11from_object
FN:298,_RNvXs4_NtNtNtCs35aDzIjzncu_6hermes4nvim3api6promptNtB5_13PromptContentNtNtCs1G52j7fviBR_15nvim_oxi_luajit8poppable8Poppable3pop
FN:101,_RNvXs_NtNtNtCs35aDzIjzncu_6hermes4nvim3api6promptNtB4_16ContentBlockTypeNtNtCsjJN1CJkPTUm_14nvim_oxi_types10conversion10FromObject11from_object
FN:64,_RNvXNtNtNtCs35aDzIjzncu_6hermes4nvim3api6promptNtNtCs4yJtZWcHHPS_28agent_client_protocol_schema7content12ContentBlockINtNtCs4kUJL3MZFFz_4core7convert4FromNtB2_16ContentBlockTypeE4from
FN:366,_RNvNtNtNtNtCs35aDzIjzncu_6hermes4nvim3api6prompt5tests16create_link_dict
FN:358,_RNvNtNtNtNtCs35aDzIjzncu_6hermes4nvim3api6prompt5tests16create_text_dict
FN:435,_RNvNtNtNtNtCs35aDzIjzncu_6hermes4nvim3api6prompt5tests17create_audio_dict
FN:423,_RNvNtNtNtNtCs35aDzIjzncu_6hermes4nvim3api6prompt5tests17create_image_dict
FN:409,_RNvNtNtNtNtCs35aDzIjzncu_6hermes4nvim3api6prompt5tests25create_embedded_blob_dict
FN:395,_RNvNtNtNtNtCs35aDzIjzncu_6hermes4nvim3api6prompt5tests25create_embedded_text_dict
FN:444,_RNvNtNtNtNtCs35aDzIjzncu_6hermes4nvim3api6prompt5tests27create_single_content_array
FN:449,_RNvNtNtNtNtCs35aDzIjzncu_6hermes4nvim3api6prompt5tests29create_multiple_content_array
FN:375,_RNvNtNtNtNtCs35aDzIjzncu_6hermes4nvim3api6prompt5tests30create_link_dict_with_optional
FN:553,_RNvNtNtNtNtCs35aDzIjzncu_6hermes4nvim3api6prompt5testss_23test_parse_link_success
FN:525,_RNvNtNtNtNtCs35aDzIjzncu_6hermes4nvim3api6prompt5testss_23test_parse_text_success
FN:717,_RNvNtNtNtNtCs35aDzIjzncu_6hermes4nvim3api6prompt5testss_24test_parse_audio_success
FN:675,_RNvNtNtNtNtCs35aDzIjzncu_6hermes4nvim3api6prompt5testss_24test_parse_image_success
FN:683,_RNvNtNtNtNtCs35aDzIjzncu_6hermes4nvim3api6prompt5testss_25test_parse_image_with_uri
FN:855,_RNvNtNtNtNtCs35aDzIjzncu_6hermes4nvim3api6prompt5testss_28test_single_content_into_vec
FN:747,_RNvNtNtNtNtCs35aDzIjzncu_6hermes4nvim3api6prompt5testss_29test_parse_unknown_type_error
FN:864,_RNvNtNtNtNtCs35aDzIjzncu_6hermes4nvim3api6prompt5testss_30test_multiple_content_into_vec
FN:825,_RNvNtNtNtNtCs35aDzIjzncu_6hermes4nvim3api6prompt5testss_32test_parse_prompt_content_single
FN:584,_RNvNtNtNtNtCs35aDzIjzncu_6hermes4nvim3api6prompt5testss_33test_parse_link_missing_uri_error
FN:768,_RNvNtNtNtNtCs35aDzIjzncu_6hermes4nvim3api6prompt5testss_34test_convert_link_to_content_block
FN:759,_RNvNtNtNtNtCs35aDzIjzncu_6hermes4nvim3api6prompt5testss_34test_convert_text_to_content_block
FN:574,_RNvNtNtNtNtCs35aDzIjzncu_6hermes4nvim3api6prompt5testss_34test_parse_link_missing_name_error
FN:834,_RNvNtNtNtNtCs35aDzIjzncu_6hermes4nvim3api6prompt5testss_34test_parse_prompt_content_multiple
FN:813,_RNvNtNtNtNtCs35aDzIjzncu_6hermes4nvim3api6prompt5testss_35test_convert_audio_to_content_block
FN:725,_RNvNtNtNtNtCs35aDzIjzncu_6hermes4nvim3api6prompt5testss_35test_parse_audio_missing_data_error
FN:695,_RNvNtNtNtNtCs35aDzIjzncu_6hermes4nvim3api6prompt5testss_35test_parse_image_missing_data_error
FN:561,_RNvNtNtNtNtCs35aDzIjzncu_6hermes4nvim3api6prompt5testss_36test_parse_link_with_optional_fields
FN:627,_RNvNtNtNtNtCs35aDzIjzncu_6hermes4nvim3api6prompt5testss_37test_parse_embedded_missing_uri_error
FN:780,_RNvNtNtNtNtCs35aDzIjzncu_6hermes4nvim3api6prompt5testss_38test_convert_embedded_to_content_block
FN:661,_RNvNtNtNtNtCs35aDzIjzncu_6hermes4nvim3api6prompt5testss_39test_parse_embedded_blob_with_mime_type
FN:605,_RNvNtNtNtNtCs35aDzIjzncu_6hermes4nvim3api6prompt5testss_39test_parse_embedded_text_with_mime_type
FN:735,_RNvNtNtNtNtCs35aDzIjzncu_6hermes4nvim3api6prompt5testss_40test_parse_audio_missing_mime_type_error
FN:705,_RNvNtNtNtNtCs35aDzIjzncu_6hermes4nvim3api6prompt5testss_40test_parse_image_missing_mime_type_error
FN:542,_RNvNtNtNtNtCs35aDzIjzncu_6hermes4nvim3api6prompt5testss_40test_parse_text_missing_text_field_error
FN:533,_RNvNtNtNtNtCs35aDzIjzncu_6hermes4nvim3api6prompt5testss_40test_parse_text_missing_type_field_error
FN:653,_RNvNtNtNtNtCs35aDzIjzncu_6hermes4nvim3api6prompt5testss_41test_parse_embedded_blob_resource_success
FN:596,_RNvNtNtNtNtCs35aDzIjzncu_6hermes4nvim3api6prompt5testss_41test_parse_embedded_text_resource_success
FN:617,_RNvNtNtNtNtCs35aDzIjzncu_6hermes4nvim3api6prompt5testss_42test_parse_embedded_missing_resource_error
FN:802,_RNvNtNtNtNtCs35aDzIjzncu_6hermes4nvim3api6prompt5testss_44test_convert_image_with_uri_to_content_block
FN:846,_RNvNtNtNtNtCs35aDzIjzncu_6hermes4nvim3api6prompt5testss_44test_parse_prompt_content_invalid_type_error
FN:791,_RNvNtNtNtNtCs35aDzIjzncu_6hermes4nvim3api6prompt5testss_47test_convert_image_without_uri_to_content_block
FN:639,_RNvNtNtNtNtCs35aDzIjzncu_6hermes4nvim3api6prompt5testss_47test_parse_embedded_missing_text_and_blob_error
FN:452,_RNCNvNtNtNtNtCs35aDzIjzncu_6hermes4nvim3api6prompt5tests29create_multiple_content_array0Bb_
FN:29,_RNCNCNvNtNtNtCs35aDzIjzncu_6hermes4nvim3api6prompt15optional_string00Bb_
FN:339,_RNCNCNvNtNtNtCs35aDzIjzncu_6hermes4nvim3api6prompt6prompt00Bb_
FN:345,_RNCNCNvNtNtNtCs35aDzIjzncu_6hermes4nvim3api6prompt6prompt0s_0Bb_
FN:27,_RNCNvNtNtNtCs35aDzIjzncu_6hermes4nvim3api6prompt15optional_string0B9_
FN:19,_RNCNvNtNtNtCs35aDzIjzncu_6hermes4nvim3api6prompt15required_string0B9_
FN:328,_RNCNvNtNtNtCs35aDzIjzncu_6hermes4nvim3api6prompt6prompt0B9_
FN:300,_RNCNvXs4_NtNtNtCs35aDzIjzncu_6hermes4nvim3api6promptNtB7_13PromptContentNtNtCs1G52j7fviBR_15nvim_oxi_luajit8poppable8Poppable3pop0Bd_
FN:118,_RNCNvXs_NtNtNtCs35aDzIjzncu_6hermes4nvim3api6promptNtB6_16ContentBlockTypeNtNtCsjJN1CJkPTUm_14nvim_oxi_types10conversion10FromObject11from_object0Bc_
FNDA:0,_RNCNCNvXs5_NtNtNtCs35aDzIjzncu_6hermes4nvim3api6promptNtB9_13PromptContentNtNtCs1G52j7fviBR_15nvim_oxi_luajit8pushable8Pushable4push00Bf_
FNDA:0,_RNCNvXs0_NtNtNtCs35aDzIjzncu_6hermes4nvim3api6promptNtB7_16ContentBlockTypeNtNtCs1G52j7fviBR_15nvim_oxi_luajit8poppable8Poppable3pop0Bd_
FNDA:0,_RNCNvXs5_NtNtNtCs35aDzIjzncu_6hermes4nvim3api6promptNtB7_13PromptContentNtNtCs1G52j7fviBR_15nvim_oxi_luajit8pushable8Pushable4push0Bd_
FNDA:0,_RNvXs0_NtNtNtCs35aDzIjzncu_6hermes4nvim3api6promptNtB5_16ContentBlockTypeNtNtCs1G52j7fviBR_15nvim_oxi_luajit8poppable8Poppable3pop
FNDA:0,_RNvXs1_NtNtNtCs35aDzIjzncu_6hermes4nvim3api6promptNtB5_16ContentBlockTypeNtNtCs1G52j7fviBR_15nvim_oxi_luajit8pushable8Pushable4push
FNDA:0,_RNvXs5_NtNtNtCs35aDzIjzncu_6hermes4nvim3api6promptNtB5_13PromptContentNtNtCs1G52j7fviBR_15nvim_oxi_luajit8pushable8Pushable4push
FNDA:1,_RNvNtNtNtNtNtCs35aDzIjzncu_6hermes4nvim3api6prompt5tests20proptest_conversions14arb_uri_string
FNDA:1,_RNvNtNtNtNtNtCs35aDzIjzncu_6hermes4nvim3api6prompt5tests20proptest_conversions15arb_name_string
FNDA:3,_RNvNtNtNtNtNtCs35aDzIjzncu_6hermes4nvim3api6prompt5tests20proptest_conversions15arb_text_string
FNDA:656,_RNCNCNvNtNtNtNtNtCs35aDzIjzncu_6hermes4nvim3api6prompt5tests20proptest_conversionss_49test_parse_multiple_content_from_lua_never_panicss_00Bf_
FNDA:256,_RNCNvNtNtNtNtNtCs35aDzIjzncu_6hermes4nvim3api6prompt5tests20proptest_conversions14arb_uri_string0Bd_
FNDA:256,_RNCNvNtNtNtNtNtCs35aDzIjzncu_6hermes4nvim3api6prompt5tests20proptest_conversions15arb_name_string0Bd_
FNDA:1168,_RNCNvNtNtNtNtNtCs35aDzIjzncu_6hermes4nvim3api6prompt5tests20proptest_conversions15arb_text_string0Bd_
FNDA:2,_RNvMs2_NtNtNtCs35aDzIjzncu_6hermes4nvim3api6promptNtB5_13PromptContent8into_vec
FNDA:525,_RNvNtNtNtCs35aDzIjzncu_6hermes4nvim3api6prompt15optional_string
FNDA:3160,_RNvNtNtNtCs35aDzIjzncu_6hermes4nvim3api6prompt15required_string
FNDA:0,_RNvNtNtNtCs35aDzIjzncu_6hermes4nvim3api6prompt6prompt
FNDA:515,_RNvXs3_NtNtNtCs35aDzIjzncu_6hermes4nvim3api6promptNtB5_13PromptContentNtNtCsjJN1CJkPTUm_14nvim_oxi_types10conversion10FromObject11from_object
FNDA:0,_RNvXs4_NtNtNtCs35aDzIjzncu_6hermes4nvim3api6promptNtB5_13PromptContentNtNtCs1G52j7fviBR_15nvim_oxi_luajit8poppable8Poppable3pop
FNDA:1449,_RNvXs_NtNtNtCs35aDzIjzncu_6hermes4nvim3api6promptNtB4_16ContentBlockTypeNtNtCsjJN1CJkPTUm_14nvim_oxi_types10conversion10FromObject11from_object
FNDA:6,_RNvXNtNtNtCs35aDzIjzncu_6hermes4nvim3api6promptNtNtCs4yJtZWcHHPS_28agent_client_protocol_schema7content12ContentBlockINtNtCs4kUJL3MZFFz_4core7convert4FromNtB2_16ContentBlockTypeE4from
FNDA:258,_RNvNtNtNtNtCs35aDzIjzncu_6hermes4nvim3api6prompt5tests16create_link_dict
FNDA:1171,_RNvNtNtNtNtCs35aDzIjzncu_6hermes4nvim3api6prompt5tests16create_text_dict
FNDA:1,_RNvNtNtNtNtCs35aDzIjzncu_6hermes4nvim3api6prompt5tests17create_audio_dict
FNDA:2,_RNvNtNtNtNtCs35aDzIjzncu_6hermes4nvim3api6prompt5tests17create_image_dict
FNDA:2,_RNvNtNtNtNtCs35aDzIjzncu_6hermes4nvim3api6prompt5tests25create_embedded_blob_dict
FNDA:2,_RNvNtNtNtNtCs35aDzIjzncu_6hermes4nvim3api6prompt5tests25create_embedded_text_dict
FNDA:256,_RNvNtNtNtNtCs35aDzIjzncu_6hermes4nvim3api6prompt5tests27create_single_content_array
FNDA:256,_RNvNtNtNtNtCs35aDzIjzncu_6hermes4nvim3api6prompt5tests29create_multiple_content_array
FNDA:1,_RNvNtNtNtNtCs35aDzIjzncu_6hermes4nvim3api6prompt5tests30create_link_dict_with_optional
FNDA:1,_RNvNtNtNtNtCs35aDzIjzncu_6hermes4nvim3api6prompt5testss_23test_parse_link_success
FNDA:1,_RNvNtNtNtNtCs35aDzIjzncu_6hermes4nvim3api6prompt5testss_23test_parse_text_success
FNDA:1,_RNvNtNtNtNtCs35aDzIjzncu_6hermes4nvim3api6prompt5testss_24test_parse_audio_success
FNDA:1,_RNvNtNtNtNtCs35aDzIjzncu_6hermes4nvim3api6prompt5testss_24test_parse_image_success
FNDA:1,_RNvNtNtNtNtCs35aDzIjzncu_6hermes4nvim3api6prompt5testss_25test_parse_image_with_uri
FNDA:1,_RNvNtNtNtNtCs35aDzIjzncu_6hermes4nvim3api6prompt5testss_28test_single_content_into_vec
FNDA:1,_RNvNtNtNtNtCs35aDzIjzncu_6hermes4nvim3api6prompt5testss_29test_parse_unknown_type_error
FNDA:1,_RNvNtNtNtNtCs35aDzIjzncu_6hermes4nvim3api6prompt5testss_30test_multiple_content_into_vec
FNDA:1,_RNvNtNtNtNtCs35aDzIjzncu_6hermes4nvim3api6prompt5testss_32test_parse_prompt_content_single
FNDA:1,_RNvNtNtNtNtCs35aDzIjzncu_6hermes4nvim3api6prompt5testss_33test_parse_link_missing_uri_error
FNDA:1,_RNvNtNtNtNtCs35aDzIjzncu_6hermes4nvim3api6prompt5testss_34test_convert_link_to_content_block
FNDA:1,_RNvNtNtNtNtCs35aDzIjzncu_6hermes4nvim3api6prompt5testss_34test_convert_text_to_content_block
FNDA:1,_RNvNtNtNtNtCs35aDzIjzncu_6hermes4nvim3api6prompt5testss_34test_parse_link_missing_name_error
FNDA:1,_RNvNtNtNtNtCs35aDzIjzncu_6hermes4nvim3api6prompt5testss_34test_parse_prompt_content_multiple
FNDA:1,_RNvNtNtNtNtCs35aDzIjzncu_6hermes4nvim3api6prompt5testss_35test_convert_audio_to_content_block
FNDA:1,_RNvNtNtNtNtCs35aDzIjzncu_6hermes4nvim3api6prompt5testss_35test_parse_audio_missing_data_error
FNDA:1,_RNvNtNtNtNtCs35aDzIjzncu_6hermes4nvim3api6prompt5testss_35test_parse_image_missing_data_error
FNDA:1,_RNvNtNtNtNtCs35aDzIjzncu_6hermes4nvim3api6prompt5testss_36test_parse_link_with_optional_fields
FNDA:1,_RNvNtNtNtNtCs35aDzIjzncu_6hermes4nvim3api6prompt5testss_37test_parse_embedded_missing_uri_error
FNDA:1,_RNvNtNtNtNtCs35aDzIjzncu_6hermes4nvim3api6prompt5testss_38test_convert_embedded_to_content_block
FNDA:1,_RNvNtNtNtNtCs35aDzIjzncu_6hermes4nvim3api6prompt5testss_39test_parse_embedded_blob_with_mime_type
FNDA:1,_RNvNtNtNtNtCs35aDzIjzncu_6hermes4nvim3api6prompt5testss_39test_parse_embedded_text_with_mime_type
FNDA:1,_RNvNtNtNtNtCs35aDzIjzncu_6hermes4nvim3api6prompt5testss_40test_parse_audio_missing_mime_type_error
FNDA:1,_RNvNtNtNtNtCs35aDzIjzncu_6hermes4nvim3api6prompt5testss_40test_parse_image_missing_mime_type_error
FNDA:1,_RNvNtNtNtNtCs35aDzIjzncu_6hermes4nvim3api6prompt5testss_40test_parse_text_missing_text_field_error
FNDA:1,_RNvNtNtNtNtCs35aDzIjzncu_6hermes4nvim3api6prompt5testss_40test_parse_text_missing_type_field_error
FNDA:1,_RNvNtNtNtNtCs35aDzIjzncu_6hermes4nvim3api6prompt5testss_41test_parse_embedded_blob_resource_success
FNDA:1,_RNvNtNtNtNtCs35aDzIjzncu_6hermes4nvim3api6prompt5testss_41test_parse_embedded_text_resource_success
FNDA:1,_RNvNtNtNtNtCs35aDzIjzncu_6hermes4nvim3api6prompt5testss_42test_parse_embedded_missing_resource_error
FNDA:1,_RNvNtNtNtNtCs35aDzIjzncu_6hermes4nvim3api6prompt5testss_44test_convert_image_with_uri_to_content_block
FNDA:1,_RNvNtNtNtNtCs35aDzIjzncu_6hermes4nvim3api6prompt5testss_44test_parse_prompt_content_invalid_type_error
FNDA:1,_RNvNtNtNtNtCs35aDzIjzncu_6hermes4nvim3api6prompt5testss_47test_convert_image_without_uri_to_content_block
FNDA:1,_RNvNtNtNtNtCs35aDzIjzncu_6hermes4nvim3api6prompt5testss_47test_parse_embedded_missing_text_and_blob_error
FNDA:656,_RNCNvNtNtNtNtCs35aDzIjzncu_6hermes4nvim3api6prompt5tests29create_multiple_content_array0Bb_
FNDA:5,_RNCNCNvNtNtNtCs35aDzIjzncu_6hermes4nvim3api6prompt15optional_string00Bb_
FNDA:0,_RNCNCNvNtNtNtCs35aDzIjzncu_6hermes4nvim3api6prompt6prompt00Bb_
FNDA:0,_RNCNCNvNtNtNtCs35aDzIjzncu_6hermes4nvim3api6prompt6prompt0s_0Bb_
FNDA:5,_RNCNvNtNtNtCs35aDzIjzncu_6hermes4nvim3api6prompt15optional_string0B9_
FNDA:9,_RNCNvNtNtNtCs35aDzIjzncu_6hermes4nvim3api6prompt15required_string0B9_
FNDA:0,_RNCNvNtNtNtCs35aDzIjzncu_6hermes4nvim3api6prompt6prompt0B9_
FNDA:0,_RNCNvXs4_NtNtNtCs35aDzIjzncu_6hermes4nvim3api6promptNtB7_13PromptContentNtNtCs1G52j7fviBR_15nvim_oxi_luajit8poppable8Poppable3pop0Bd_
FNDA:1,_RNCNvXs_NtNtNtCs35aDzIjzncu_6hermes4nvim3api6promptNtB6_16ContentBlockTypeNtNtCsjJN1CJkPTUm_14nvim_oxi_types10conversion10FromObject11from_object0Bc_
FNF:72
FNH:60
DA:16,3160
DA:17,3160
DA:18,3160
DA:19,3160
DA:20,3151
DA:21,3151
DA:22,3151
DA:23,3160
DA:26,525
DA:27,525
DA:28,5
DA:29,5
DA:30,5
DA:31,5
DA:33,520
DA:35,525
DA:64,6
DA:65,6
DA:66,1
DA:68,1
DA:69,1
DA:70,1
DA:71,1
DA:73,1
DA:74,1
DA:75,1
DA:76,1
DA:78,1
DA:79,1
DA:82,2
DA:83,2
DA:84,2
DA:86,2
DA:87,2
DA:88,1
DA:90,1
DA:93,1
DA:94,1
DA:97,6
DA:101,1449
DA:102,1449
DA:103,1449
DA:105,1448
DA:106,1448
DA:107,1172
DA:109,276
DA:110,261
DA:111,260
DA:112,259
DA:113,259
DA:115,15
DA:116,7
DA:117,7
DA:118,7
DA:119,1
DA:120,1
DA:121,1
DA:122,1
DA:123,6
DA:124,6
DA:126,6
DA:127,5
DA:129,5
DA:130,2
DA:131,2
DA:132,2
DA:133,1
DA:134,1
DA:136,2
DA:137,3
DA:138,2
DA:139,2
DA:140,2
DA:141,1
DA:142,1
DA:144,2
DA:146,1
DA:147,1
DA:148,1
DA:151,4
DA:153,8
DA:154,4
DA:155,3
DA:156,2
DA:158,4
DA:159,3
DA:160,2
DA:162,1
DA:163,1
DA:164,1
DA:166,1449
DA:170,0
DA:171,0
DA:172,0
DA:173,0
DA:177,0
DA:178,0
DA:179,0
DA:180,0
DA:181,0
DA:182,0
DA:183,0
DA:186,0
DA:187,0
DA:188,0
DA:189,0
DA:191,0
DA:192,0
DA:193,0
DA:194,0
DA:195,0
DA:196,0
DA:197,0
DA:198,0
DA:199,0
DA:200,0
DA:201,0
DA:203,0
DA:204,0
DA:205,0
DA:206,0
DA:207,0
DA:208,0
DA:209,0
DA:210,0
DA:211,0
DA:212,0
DA:213,0
DA:215,0
DA:216,0
DA:217,0
DA:218,0
DA:219,0
DA:220,0
DA:222,0
DA:223,0
DA:224,0
DA:225,0
DA:226,0
DA:229,0
DA:230,0
DA:233,0
DA:234,0
DA:235,0
DA:237,0
DA:238,0
DA:239,0
DA:240,0
DA:241,0
DA:242,0
DA:243,0
DA:244,0
DA:246,0
DA:247,0
DA:248,0
DA:249,0
DA:250,0
DA:251,0
DA:254,0
DA:255,0
DA:266,2
DA:267,2
DA:268,1
DA:269,1
DA:271,2
DA:275,515
DA:276,515
DA:278,513
DA:279,513
DA:280,513
DA:281,513
DA:282,513
DA:283,513
DA:286,1
DA:287,1
DA:289,1
DA:290,1
DA:291,1
DA:292,1
DA:294,515
DA:298,0
DA:299,0
DA:300,0
DA:301,0
DA:305,0
DA:306,0
DA:307,0
DA:308,0
DA:309,0
DA:310,0
DA:311,0
DA:312,0
DA:313,0
DA:314,0
DA:315,0
DA:316,0
DA:319,0
DA:326,0
DA:327,0
DA:328,0
DA:329,0
DA:331,0
DA:332,0
DA:334,0
DA:336,0
DA:337,0
DA:338,0
DA:339,0
DA:340,0
DA:341,0
DA:342,0
DA:343,0
DA:344,0
DA:345,0
DA:347,0
DA:348,0
DA:349,0
DA:350,0
DA:358,1171
DA:359,1171
DA:360,1171
DA:361,1171
DA:362,1171
DA:363,1171
DA:366,258
DA:367,258
DA:368,258
DA:369,258
DA:370,258
DA:371,258
DA:372,258
DA:375,1
DA:376,1
DA:377,1
DA:378,1
DA:379,1
DA:380,1
DA:381,1
DA:382,1
DA:383,1
DA:384,1
DA:385,1
DA:386,1
DA:387,1
DA:388,1
DA:389,1
DA:390,1
DA:391,1
DA:392,1
DA:395,2
DA:396,2
DA:397,2
DA:398,2
DA:399,2
DA:400,2
DA:401,2
DA:402,1
DA:403,1
DA:404,2
DA:405,2
DA:406,2
DA:409,2
DA:410,2
DA:411,2
DA:412,2
DA:413,2
DA:414,2
DA:415,2
DA:416,1
DA:417,1
DA:418,2
DA:419,2
DA:420,2
DA:423,2
DA:424,2
DA:425,2
DA:426,2
DA:427,2
DA:428,2
DA:429,1
DA:430,1
DA:431,2
DA:432,2
DA:435,1
DA:436,1
DA:437,1
DA:438,1
DA:439,1
DA:440,1
DA:441,1
DA:444,256
DA:445,256
DA:446,256
DA:449,256
DA:450,256
DA:451,256
DA:452,656
DA:453,256
DA:454,256
DA:455,256
DA:463,3
DA:464,1168
DA:465,3
DA:468,1
DA:469,256
DA:470,1
DA:473,1
DA:474,256
DA:475,1
DA:513,656
DA:525,1
DA:526,1
DA:527,1
DA:528,1
DA:529,1
DA:530,1
DA:533,1
DA:534,1
DA:535,1
DA:536,1
DA:537,1
DA:538,1
DA:539,1
DA:542,1
DA:543,1
DA:544,1
DA:545,1
DA:546,1
DA:547,1
DA:548,1
DA:553,1
DA:554,1
DA:555,1
DA:556,1
DA:557,1
DA:558,1
DA:561,1
DA:562,1
DA:563,1
DA:564,1
DA:565,1
DA:566,1
DA:568,1
DA:569,1
DA:570,1
DA:571,1
DA:574,1
DA:575,1
DA:576,1
DA:577,1
DA:578,1
DA:579,1
DA:580,1
DA:581,1
DA:584,1
DA:585,1
DA:586,1
DA:587,1
DA:588,1
DA:589,1
DA:590,1
DA:591,1
DA:596,1
DA:597,1
DA:598,1
DA:599,1
DA:600,1
DA:601,1
DA:602,1
DA:605,1
DA:606,1
DA:607,1
DA:608,1
DA:609,1
DA:611,1
DA:612,1
DA:613,1
DA:614,1
DA:617,1
DA:618,1
DA:619,1
DA:620,1
DA:621,1
DA:622,1
DA:623,1
DA:624,1
DA:627,1
DA:628,1
DA:629,1
DA:630,1
DA:631,1
DA:632,1
DA:633,1
DA:634,1
DA:635,1
DA:636,1
DA:639,1
DA:640,1
DA:641,1
DA:642,1
DA:643,1
DA:644,1
DA:645,1
DA:646,1
DA:647,1
DA:648,1
DA:653,1
DA:654,1
DA:655,1
DA:656,1
DA:657,1
DA:658,1
DA:661,1
DA:662,1
DA:663,1
DA:664,1
DA:665,1
DA:667,1
DA:668,1
DA:669,1
DA:670,1
DA:675,1
DA:676,1
DA:677,1
DA:678,1
DA:679,1
DA:680,1
DA:683,1
DA:684,1
DA:685,1
DA:686,1
DA:687,1
DA:689,1
DA:690,1
DA:691,1
DA:692,1
DA:695,1
DA:696,1
DA:697,1
DA:698,1
DA:699,1
DA:700,1
DA:701,1
DA:702,1
DA:705,1
DA:706,1
DA:707,1
DA:708,1
DA:709,1
DA:710,1
DA:711,1
DA:712,1
DA:717,1
DA:718,1
DA:719,1
DA:720,1
DA:721,1
DA:722,1
DA:725,1
DA:726,1
DA:727,1
DA:728,1
DA:729,1
DA:730,1
DA:731,1
DA:732,1
DA:735,1
DA:736,1
DA:737,1
DA:738,1
DA:739,1
DA:740,1
DA:741,1
DA:742,1
DA:747,1
DA:748,1
DA:749,1
DA:750,1
DA:751,1
DA:752,1
DA:753,1
DA:754,1
DA:759,1
DA:760,1
DA:761,1
DA:762,1
DA:763,1
DA:764,1
DA:765,1
DA:768,1
DA:769,1
DA:770,1
DA:771,1
DA:772,1
DA:773,1
DA:774,1
DA:775,1
DA:776,1
DA:777,1
DA:780,1
DA:781,1
DA:782,1
DA:783,1
DA:784,1
DA:785,1
DA:786,1
DA:787,1
DA:788,1
DA:791,1
DA:792,1
DA:793,1
DA:794,1
DA:795,1
DA:796,1
DA:797,1
DA:798,1
DA:799,1
DA:802,1
DA:803,1
DA:804,1
DA:805,1
DA:806,1
DA:807,1
DA:808,1
DA:809,1
DA:810,1
DA:813,1
DA:814,1
DA:815,1
DA:816,1
DA:817,1
DA:818,1
DA:819,1
DA:820,1
DA:825,1
DA:826,1
DA:827,1
DA:828,1
DA:829,1
DA:830,1
DA:831,1
DA:834,1
DA:835,1
DA:836,1
DA:837,1
DA:839,1
DA:840,1
DA:841,1
DA:842,1
DA:843,1
DA:846,1
DA:847,1
DA:848,1
DA:849,1
DA:850,1
DA:855,1
DA:856,1
DA:857,1
DA:858,1
DA:859,1
DA:860,1
DA:861,1
DA:864,1
DA:865,1
DA:866,1
DA:867,1
DA:868,1
DA:869,1
DA:870,1
DA:871,1
DA:872,1
DA:873,1
DA:874,1
DA:875,1
BRF:0
BRH:0
LF:590
LH:476
end_of_record
SF:/var/www/hermes/src/nvim/api/respond.rs
FN:11,_RINvNtNtNtCs35aDzIjzncu_6hermes4nvim3api7respond7respondNtNtB6_8requests8RequestsEB8_
FN:13,_RNCINvNtNtNtCs35aDzIjzncu_6hermes4nvim3api7respond7respondNtNtB8_8requests8RequestsE0Ba_
FN:17,_RNCNCINvNtNtNtCs35aDzIjzncu_6hermes4nvim3api7respond7respondNtNtBa_8requests8RequestsE00Bc_
FNDA:0,_RINvNtNtNtCs35aDzIjzncu_6hermes4nvim3api7respond7respondNtNtB6_8requests8RequestsEB8_
FNDA:0,_RNCINvNtNtNtCs35aDzIjzncu_6hermes4nvim3api7respond7respondNtNtB8_8requests8RequestsE0Ba_
FNDA:0,_RNCNCINvNtNtNtCs35aDzIjzncu_6hermes4nvim3api7respond7respondNtNtBa_8requests8RequestsE00Bc_
FNF:3
FNH:0
DA:11,0
DA:12,0
DA:13,0
DA:14,0
DA:17,0
DA:18,0
DA:19,0
DA:20,0
DA:21,0
DA:22,0
DA:24,0
DA:26,0
DA:27,0
DA:28,0
DA:30,0
DA:31,0
BRF:0
BRH:0
LF:18
LH:0
end_of_record
SF:/var/www/hermes/src/nvim/api/set_mode.rs
FN:25,_RNCNCNvNtNtNtCs35aDzIjzncu_6hermes4nvim3api8set_mode8set_mode00Bb_
FN:31,_RNCNCNvNtNtNtCs35aDzIjzncu_6hermes4nvim3api8set_mode8set_mode0s_0Bb_
FN:14,_RNCNvNtNtNtCs35aDzIjzncu_6hermes4nvim3api8set_mode8set_mode0B9_
FN:12,_RNvNtNtNtCs35aDzIjzncu_6hermes4nvim3api8set_mode8set_mode
FNDA:0,_RNCNCNvNtNtNtCs35aDzIjzncu_6hermes4nvim3api8set_mode8set_mode00Bb_
FNDA:0,_RNCNCNvNtNtNtCs35aDzIjzncu_6hermes4nvim3api8set_mode8set_mode0s_0Bb_
FNDA:0,_RNCNvNtNtNtCs35aDzIjzncu_6hermes4nvim3api8set_mode8set_mode0B9_
FNDA:0,_RNvNtNtNtCs35aDzIjzncu_6hermes4nvim3api8set_mode8set_mode
FNF:4
FNH:0
DA:12,0
DA:13,0
DA:14,0
DA:15,0
DA:20,0
DA:22,0
DA:23,0
DA:24,0
DA:25,0
DA:26,0
DA:27,0
DA:28,0
DA:29,0
DA:30,0
DA:31,0
DA:33,0
DA:34,0
DA:36,0
DA:37,0
BRF:0
BRH:0
LF:22
LH:0
end_of_record
SF:/var/www/hermes/src/nvim/api/setup.rs
FN:38,_RNvXs0_NtNtNtCs35aDzIjzncu_6hermes4nvim3api5setupNtB5_9SetupArgsNtNtCs1G52j7fviBR_15nvim_oxi_luajit8pushable8Pushable4push
FN:52,_RNCNvNtNtNtCs35aDzIjzncu_6hermes4nvim3api5setup5setup0B9_
FN:31,_RNCNvXs_NtNtNtCs35aDzIjzncu_6hermes4nvim3api5setupNtB6_9SetupArgsNtNtCs1G52j7fviBR_15nvim_oxi_luajit8poppable8Poppable3pop0Bc_
FN:32,_RNCNvXs_NtNtNtCs35aDzIjzncu_6hermes4nvim3api5setupNtB6_9SetupArgsNtNtCs1G52j7fviBR_15nvim_oxi_luajit8poppable8Poppable3pops_0Bc_
FN:17,_RNvMNtNtNtCs35aDzIjzncu_6hermes4nvim3api5setupNtB2_9SetupArgs10into_inner
FN:50,_RNvNtNtNtCs35aDzIjzncu_6hermes4nvim3api5setup5setup
FN:23,_RNvXs_NtNtNtCs35aDzIjzncu_6hermes4nvim3api5setupNtB4_9SetupArgsNtNtCs1G52j7fviBR_15nvim_oxi_luajit8poppable8Poppable3pop
FNDA:0,_RNvXs0_NtNtNtCs35aDzIjzncu_6hermes4nvim3api5setupNtB5_9SetupArgsNtNtCs1G52j7fviBR_15nvim_oxi_luajit8pushable8Pushable4push
FNDA:0,_RNCNvNtNtNtCs35aDzIjzncu_6hermes4nvim3api5setup5setup0B9_
FNDA:0,_RNCNvXs_NtNtNtCs35aDzIjzncu_6hermes4nvim3api5setupNtB6_9SetupArgsNtNtCs1G52j7fviBR_15nvim_oxi_luajit8poppable8Poppable3pop0Bc_
FNDA:0,_RNCNvXs_NtNtNtCs35aDzIjzncu_6hermes4nvim3api5setupNtB6_9SetupArgsNtNtCs1G52j7fviBR_15nvim_oxi_luajit8poppable8Poppable3pops_0Bc_
FNDA:0,_RNvMNtNtNtCs35aDzIjzncu_6hermes4nvim3api5setupNtB2_9SetupArgs10into_inner
FNDA:0,_RNvNtNtNtCs35aDzIjzncu_6hermes4nvim3api5setup5setup
FNDA:0,_RNvXs_NtNtNtCs35aDzIjzncu_6hermes4nvim3api5setupNtB4_9SetupArgsNtNtCs1G52j7fviBR_15nvim_oxi_luajit8poppable8Poppable3pop
FNF:7
FNH:0
DA:17,0
DA:18,0
DA:19,0
DA:23,0
DA:24,0
DA:26,0
DA:27,0
DA:30,0
DA:31,0
DA:32,0
DA:34,0
DA:38,0
DA:39,0
DA:40,0
DA:43,0
DA:45,0
DA:50,0
DA:51,0
DA:52,0
DA:53,0
DA:55,0
DA:56,0
DA:57,0
DA:58,0
DA:59,0
DA:60,0
DA:62,0
DA:63,0
DA:64,0
DA:65,0
BRF:0
BRH:0
LF:33
LH:0
end_of_record
SF:/var/www/hermes/src/nvim/autocommands.rs
FN:128,_RNvNtNtNtCs35aDzIjzncu_6hermes4nvim12autocommands5testss_37test_commands_from_str_basic_variants
FN:148,_RNvNtNtNtCs35aDzIjzncu_6hermes4nvim12autocommands5testss_45test_commands_from_str_unknown_command_panics
FN:55,_RNvXNtNtCs35aDzIjzncu_6hermes4nvim12autocommandsNtB2_8CommandsINtNtCs4kUJL3MZFFz_4core7convert4FromReE4from
FN:117,_RNvXs0_NtNtCs35aDzIjzncu_6hermes4nvim12autocommandsNtB5_8CommandsNtNtCs4kUJL3MZFFz_4core3fmt7Display3fmt
FN:111,_RNvXs_NtNtCs35aDzIjzncu_6hermes4nvim12autocommandsNtB4_8CommandsINtNtCs4kUJL3MZFFz_4core7convert4FromNtNtCsauO83Ko6oyK_5alloc6string6StringE4from
FNDA:1,_RNvNtNtNtCs35aDzIjzncu_6hermes4nvim12autocommands5testss_37test_commands_from_str_basic_variants
FNDA:1,_RNvNtNtNtCs35aDzIjzncu_6hermes4nvim12autocommands5testss_45test_commands_from_str_unknown_command_panics
FNDA:6,_RNvXNtNtCs35aDzIjzncu_6hermes4nvim12autocommandsNtB2_8CommandsINtNtCs4kUJL3MZFFz_4core7convert4FromReE4from
FNDA:0,_RNvXs0_NtNtCs35aDzIjzncu_6hermes4nvim12autocommandsNtB5_8CommandsNtNtCs4kUJL3MZFFz_4core3fmt7Display3fmt
FNDA:0,_RNvXs_NtNtCs35aDzIjzncu_6hermes4nvim12autocommandsNtB4_8CommandsINtNtCs4kUJL3MZFFz_4core7convert4FromNtNtCsauO83Ko6oyK_5alloc6string6StringE4from
FNF:5
FNH:3
DA:55,6
DA:56,6
DA:58,6
DA:59,6
DA:60,6
DA:61,6
DA:62,6
DA:63,6
DA:64,6
DA:65,6
DA:66,6
DA:67,5
DA:68,4
DA:69,4
DA:70,4
DA:71,4
DA:72,4
DA:75,4
DA:76,3
DA:77,3
DA:78,3
DA:79,3
DA:80,3
DA:81,3
DA:82,3
DA:83,3
DA:84,3
DA:85,3
DA:88,3
DA:89,3
DA:90,3
DA:91,3
DA:94,2
DA:95,2
DA:96,2
DA:97,1
DA:100,1
DA:101,1
DA:102,1
DA:103,1
DA:105,1
DA:107,5
DA:111,0
DA:112,0
DA:113,0
DA:117,0
DA:118,0
DA:119,0
DA:128,1
DA:130,1
DA:131,1
DA:134,1
DA:135,1
DA:136,1
DA:139,1
DA:140,1
DA:141,1
DA:144,1
DA:148,1
DA:149,1
DA:150,1
BRF:0
BRH:0
LF:61
LH:55
end_of_record
SF:/var/www/hermes/src/nvim/configuration/buffer.rs
FN:71,_RNvNtNtNtNtCs35aDzIjzncu_6hermes4nvim13configuration6buffer5testss_42test_buffer_partial_from_object_empty_dict
FN:42,_RNvNtNtNtNtCs35aDzIjzncu_6hermes4nvim13configuration6buffer5testss_46test_buffer_partial_apply_to_updates_specified
FN:52,_RNvNtNtNtNtCs35aDzIjzncu_6hermes4nvim13configuration6buffer5testss_48test_buffer_partial_apply_to_preserves_when_none
FN:60,_RNvNtNtNtNtCs35aDzIjzncu_6hermes4nvim13configuration6buffer5testss_48test_buffer_partial_from_object_parses_correctly
FN:31,_RNCNvXs_NtNtNtCs35aDzIjzncu_6hermes4nvim13configuration6bufferNtB6_19BufferConfigPartialNtNtCsjJN1CJkPTUm_14nvim_oxi_types10conversion10FromObject11from_object0Bc_
FN:19,_RNvMNtNtNtCs35aDzIjzncu_6hermes4nvim13configuration6bufferNtB2_19BufferConfigPartial8apply_to
FN:27,_RNvXs_NtNtNtCs35aDzIjzncu_6hermes4nvim13configuration6bufferNtB4_19BufferConfigPartialNtNtCsjJN1CJkPTUm_14nvim_oxi_types10conversion10FromObject11from_object
FNDA:1,_RNvNtNtNtNtCs35aDzIjzncu_6hermes4nvim13configuration6buffer5testss_42test_buffer_partial_from_object_empty_dict
FNDA:1,_RNvNtNtNtNtCs35aDzIjzncu_6hermes4nvim13configuration6buffer5testss_46test_buffer_partial_apply_to_updates_specified
FNDA:1,_RNvNtNtNtNtCs35aDzIjzncu_6hermes4nvim13configuration6buffer5testss_48test_buffer_partial_apply_to_preserves_when_none
FNDA:1,_RNvNtNtNtNtCs35aDzIjzncu_6hermes4nvim13configuration6buffer5testss_48test_buffer_partial_from_object_parses_correctly
FNDA:2,_RNCNvXs_NtNtNtCs35aDzIjzncu_6hermes4nvim13configuration6bufferNtB6_19BufferConfigPartialNtNtCsjJN1CJkPTUm_14nvim_oxi_types10conversion10FromObject11from_object0Bc_
FNDA:3,_RNvMNtNtNtCs35aDzIjzncu_6hermes4nvim13configuration6bufferNtB2_19BufferConfigPartial8apply_to
FNDA:3,_RNvXs_NtNtNtCs35aDzIjzncu_6hermes4nvim13configuration6bufferNtB4_19BufferConfigPartialNtNtCsjJN1CJkPTUm_14nvim_oxi_types10conversion10FromObject11from_object
FNF:7
FNH:7
DA:19,3
DA:20,3
DA:21,2
DA:22,2
DA:23,3
DA:27,3
DA:28,3
DA:29,3
DA:30,3
DA:31,3
DA:32,3
DA:33,3
DA:34,3
DA:42,1
DA:43,1
DA:44,1
DA:45,1
DA:46,1
DA:47,1
DA:48,1
DA:49,1
DA:52,1
DA:53,1
DA:54,1
DA:55,1
DA:56,1
DA:57,1
DA:60,1
DA:61,1
DA:62,1
DA:64,1
DA:65,1
DA:67,1
DA:68,1
DA:71,1
DA:72,1
DA:73,1
DA:74,1
DA:76,1
DA:77,1
BRF:0
BRH:0
LF:41
LH:41
end_of_record
SF:/var/www/hermes/src/nvim/configuration/log.rs
FN:25,_RNvMNtNtNtCs35aDzIjzncu_6hermes4nvim13configuration3logNtB2_22LogTargetConfigPartial8apply_to
FN:85,_RNvMs1_NtNtNtCs35aDzIjzncu_6hermes4nvim13configuration3logNtB5_20LogFileConfigPartial8apply_to
FN:172,_RNvMs4_NtNtNtCs35aDzIjzncu_6hermes4nvim13configuration3logNtB5_16LogConfigPartial8apply_to
FN:62,_RNvXs0_NtNtNtCs35aDzIjzncu_6hermes4nvim13configuration3logNtB5_13LogFileConfigNtNtCs4kUJL3MZFFz_4core7default7Default7default
FN:105,_RNvXs2_NtNtNtCs35aDzIjzncu_6hermes4nvim13configuration3logNtB5_20LogFileConfigPartialNtNtCsjJN1CJkPTUm_14nvim_oxi_types10conversion10FromObject11from_object
FN:148,_RNvXs3_NtNtNtCs35aDzIjzncu_6hermes4nvim13configuration3logNtB5_9LogConfigNtNtCs4kUJL3MZFFz_4core7default7Default7default
FN:189,_RNvXs5_NtNtNtCs35aDzIjzncu_6hermes4nvim13configuration3logNtB5_16LogConfigPartialNtNtCsjJN1CJkPTUm_14nvim_oxi_types10conversion10FromObject11from_object
FN:36,_RNvXs_NtNtNtCs35aDzIjzncu_6hermes4nvim13configuration3logNtB4_22LogTargetConfigPartialNtNtCsjJN1CJkPTUm_14nvim_oxi_types10conversion10FromObject11from_object
FN:110,_RNCNvXs2_NtNtNtCs35aDzIjzncu_6hermes4nvim13configuration3logNtB7_20LogFileConfigPartialNtNtCsjJN1CJkPTUm_14nvim_oxi_types10conversion10FromObject11from_object0Bd_
FN:118,_RNCNvXs2_NtNtNtCs35aDzIjzncu_6hermes4nvim13configuration3logNtB7_20LogFileConfigPartialNtNtCsjJN1CJkPTUm_14nvim_oxi_types10conversion10FromObject11from_objects0_0Bd_
FN:122,_RNCNvXs2_NtNtNtCs35aDzIjzncu_6hermes4nvim13configuration3logNtB7_20LogFileConfigPartialNtNtCsjJN1CJkPTUm_14nvim_oxi_types10conversion10FromObject11from_objects1_0Bd_
FN:126,_RNCNvXs2_NtNtNtCs35aDzIjzncu_6hermes4nvim13configuration3logNtB7_20LogFileConfigPartialNtNtCsjJN1CJkPTUm_14nvim_oxi_types10conversion10FromObject11from_objects2_0Bd_
FN:114,_RNCNvXs2_NtNtNtCs35aDzIjzncu_6hermes4nvim13configuration3logNtB7_20LogFileConfigPartialNtNtCsjJN1CJkPTUm_14nvim_oxi_types10conversion10FromObject11from_objects_0Bd_
FN:194,_RNCNvXs5_NtNtNtCs35aDzIjzncu_6hermes4nvim13configuration3logNtB7_16LogConfigPartialNtNtCsjJN1CJkPTUm_14nvim_oxi_types10conversion10FromObject11from_object0Bd_
FN:202,_RNCNvXs5_NtNtNtCs35aDzIjzncu_6hermes4nvim13configuration3logNtB7_16LogConfigPartialNtNtCsjJN1CJkPTUm_14nvim_oxi_types10conversion10FromObject11from_objects0_0Bd_
FN:206,_RNCNvXs5_NtNtNtCs35aDzIjzncu_6hermes4nvim13configuration3logNtB7_16LogConfigPartialNtNtCsjJN1CJkPTUm_14nvim_oxi_types10conversion10FromObject11from_objects1_0Bd_
FN:198,_RNCNvXs5_NtNtNtCs35aDzIjzncu_6hermes4nvim13configuration3logNtB7_16LogConfigPartialNtNtCsjJN1CJkPTUm_14nvim_oxi_types10conversion10FromObject11from_objects_0Bd_
FN:41,_RNCNvXs_NtNtNtCs35aDzIjzncu_6hermes4nvim13configuration3logNtB6_22LogTargetConfigPartialNtNtCsjJN1CJkPTUm_14nvim_oxi_types10conversion10FromObject11from_object0Bc_
FN:45,_RNCNvXs_NtNtNtCs35aDzIjzncu_6hermes4nvim13configuration3logNtB6_22LogTargetConfigPartialNtNtCsjJN1CJkPTUm_14nvim_oxi_types10conversion10FromObject11from_objects_0Bc_
FN:274,_RNvNtNtNtNtCs35aDzIjzncu_6hermes4nvim13configuration3log5testss_42test_log_file_config_partial_apply_to_path
FN:288,_RNvNtNtNtNtCs35aDzIjzncu_6hermes4nvim13configuration3log5testss_43test_log_file_config_partial_apply_to_level
FN:344,_RNvNtNtNtNtCs35aDzIjzncu_6hermes4nvim13configuration3log5testss_44test_log_config_partial_apply_to_stdio_level
FN:302,_RNvNtNtNtNtCs35aDzIjzncu_6hermes4nvim13configuration3log5testss_44test_log_file_config_partial_apply_to_format
FN:360,_RNvNtNtNtNtCs35aDzIjzncu_6hermes4nvim13configuration3log5testss_45test_log_config_partial_apply_to_stdio_format
FN:224,_RNvNtNtNtNtCs35aDzIjzncu_6hermes4nvim13configuration3log5testss_45test_log_target_config_partial_apply_to_level
FN:316,_RNvNtNtNtNtCs35aDzIjzncu_6hermes4nvim13configuration3log5testss_46test_log_file_config_partial_apply_to_max_size
FN:235,_RNvNtNtNtNtCs35aDzIjzncu_6hermes4nvim13configuration3log5testss_46test_log_target_config_partial_apply_to_format
FN:330,_RNvNtNtNtNtCs35aDzIjzncu_6hermes4nvim13configuration3log5testss_47test_log_file_config_partial_apply_to_max_files
FN:376,_RNvNtNtNtNtCs35aDzIjzncu_6hermes4nvim13configuration3log5testss_52test_log_config_partial_apply_to_preserves_untouched
FN:260,_RNvNtNtNtNtCs35aDzIjzncu_6hermes4nvim13configuration3log5testss_61test_log_target_config_partial_apply_partial_updates_provided
FN:246,_RNvNtNtNtNtCs35aDzIjzncu_6hermes4nvim13configuration3log5testss_64test_log_target_config_partial_apply_partial_preserves_untouched
FNDA:8,_RNvMNtNtNtCs35aDzIjzncu_6hermes4nvim13configuration3logNtB2_22LogTargetConfigPartial8apply_to
FNDA:5,_RNvMs1_NtNtNtCs35aDzIjzncu_6hermes4nvim13configuration3logNtB5_20LogFileConfigPartial8apply_to
FNDA:4,_RNvMs4_NtNtNtCs35aDzIjzncu_6hermes4nvim13configuration3logNtB5_16LogConfigPartial8apply_to
FNDA:10,_RNvXs0_NtNtNtCs35aDzIjzncu_6hermes4nvim13configuration3logNtB5_13LogFileConfigNtNtCs4kUJL3MZFFz_4core7default7Default7default
FNDA:0,_RNvXs2_NtNtNtCs35aDzIjzncu_6hermes4nvim13configuration3logNtB5_20LogFileConfigPartialNtNtCsjJN1CJkPTUm_14nvim_oxi_types10conversion10FromObject11from_object
FNDA:4,_RNvXs3_NtNtNtCs35aDzIjzncu_6hermes4nvim13configuration3logNtB5_9LogConfigNtNtCs4kUJL3MZFFz_4core7default7Default7default
FNDA:1,_RNvXs5_NtNtNtCs35aDzIjzncu_6hermes4nvim13configuration3logNtB5_16LogConfigPartialNtNtCsjJN1CJkPTUm_14nvim_oxi_types10conversion10FromObject11from_object
FNDA:0,_RNvXs_NtNtNtCs35aDzIjzncu_6hermes4nvim13configuration3logNtB4_22LogTargetConfigPartialNtNtCsjJN1CJkPTUm_14nvim_oxi_types10conversion10FromObject11from_object
FNDA:0,_RNCNvXs2_NtNtNtCs35aDzIjzncu_6hermes4nvim13configuration3logNtB7_20LogFileConfigPartialNtNtCsjJN1CJkPTUm_14nvim_oxi_types10conversion10FromObject11from_object0Bd_
FNDA:0,_RNCNvXs2_NtNtNtCs35aDzIjzncu_6hermes4nvim13configuration3logNtB7_20LogFileConfigPartialNtNtCsjJN1CJkPTUm_14nvim_oxi_types10conversion10FromObject11from_objects0_0Bd_
FNDA:0,_RNCNvXs2_NtNtNtCs35aDzIjzncu_6hermes4nvim13configuration3logNtB7_20LogFileConfigPartialNtNtCsjJN1CJkPTUm_14nvim_oxi_types10conversion10FromObject11from_objects1_0Bd_
FNDA:0,_RNCNvXs2_NtNtNtCs35aDzIjzncu_6hermes4nvim13configuration3logNtB7_20LogFileConfigPartialNtNtCsjJN1CJkPTUm_14nvim_oxi_types10conversion10FromObject11from_objects2_0Bd_
FNDA:0,_RNCNvXs2_NtNtNtCs35aDzIjzncu_6hermes4nvim13configuration3logNtB7_20LogFileConfigPartialNtNtCsjJN1CJkPTUm_14nvim_oxi_types10conversion10FromObject11from_objects_0Bd_
FNDA:0,_RNCNvXs5_NtNtNtCs35aDzIjzncu_6hermes4nvim13configuration3logNtB7_16LogConfigPartialNtNtCsjJN1CJkPTUm_14nvim_oxi_types10conversion10FromObject11from_object0Bd_
FNDA:0,_RNCNvXs5_NtNtNtCs35aDzIjzncu_6hermes4nvim13configuration3logNtB7_16LogConfigPartialNtNtCsjJN1CJkPTUm_14nvim_oxi_types10conversion10FromObject11from_objects0_0Bd_
FNDA:0,_RNCNvXs5_NtNtNtCs35aDzIjzncu_6hermes4nvim13configuration3logNtB7_16LogConfigPartialNtNtCsjJN1CJkPTUm_14nvim_oxi_types10conversion10FromObject11from_objects1_0Bd_
FNDA:0,_RNCNvXs5_NtNtNtCs35aDzIjzncu_6hermes4nvim13configuration3logNtB7_16LogConfigPartialNtNtCsjJN1CJkPTUm_14nvim_oxi_types10conversion10FromObject11from_objects_0Bd_
FNDA:0,_RNCNvXs_NtNtNtCs35aDzIjzncu_6hermes4nvim13configuration3logNtB6_22LogTargetConfigPartialNtNtCsjJN1CJkPTUm_14nvim_oxi_types10conversion10FromObject11from_object0Bc_
FNDA:0,_RNCNvXs_NtNtNtCs35aDzIjzncu_6hermes4nvim13configuration3logNtB6_22LogTargetConfigPartialNtNtCsjJN1CJkPTUm_14nvim_oxi_types10conversion10FromObject11from_objects_0Bc_
FNDA:1,_RNvNtNtNtNtCs35aDzIjzncu_6hermes4nvim13configuration3log5testss_42test_log_file_config_partial_apply_to_path
FNDA:1,_RNvNtNtNtNtCs35aDzIjzncu_6hermes4nvim13configuration3log5testss_43test_log_file_config_partial_apply_to_level
FNDA:1,_RNvNtNtNtNtCs35aDzIjzncu_6hermes4nvim13configuration3log5testss_44test_log_config_partial_apply_to_stdio_level
FNDA:1,_RNvNtNtNtNtCs35aDzIjzncu_6hermes4nvim13configuration3log5testss_44test_log_file_config_partial_apply_to_format
FNDA:1,_RNvNtNtNtNtCs35aDzIjzncu_6hermes4nvim13configuration3log5testss_45test_log_config_partial_apply_to_stdio_format
FNDA:1,_RNvNtNtNtNtCs35aDzIjzncu_6hermes4nvim13configuration3log5testss_45test_log_target_config_partial_apply_to_level
FNDA:1,_RNvNtNtNtNtCs35aDzIjzncu_6hermes4nvim13configuration3log5testss_46test_log_file_config_partial_apply_to_max_size
FNDA:1,_RNvNtNtNtNtCs35aDzIjzncu_6hermes4nvim13configuration3log5testss_46test_log_target_config_partial_apply_to_format
FNDA:1,_RNvNtNtNtNtCs35aDzIjzncu_6hermes4nvim13configuration3log5testss_47test_log_file_config_partial_apply_to_max_files
FNDA:1,_RNvNtNtNtNtCs35aDzIjzncu_6hermes4nvim13configuration3log5testss_52test_log_config_partial_apply_to_preserves_untouched
FNDA:1,_RNvNtNtNtNtCs35aDzIjzncu_6hermes4nvim13configuration3log5testss_61test_log_target_config_partial_apply_partial_updates_provided
FNDA:1,_RNvNtNtNtNtCs35aDzIjzncu_6hermes4nvim13configuration3log5testss_64test_log_target_config_partial_apply_partial_preserves_untouched
FNF:31
FNH:18
DA:25,8
DA:26,8
DA:27,6
DA:28,6
DA:29,8
DA:30,3
DA:31,5
DA:32,8
DA:36,0
DA:37,0
DA:39,0
DA:40,0
DA:41,0
DA:42,0
DA:43,0
DA:44,0
DA:45,0
DA:46,0
DA:48,0
DA:49,0
DA:62,10
DA:63,10
DA:64,10
DA:65,10
DA:66,10
DA:67,10
DA:68,10
DA:69,10
DA:70,10
DA:85,5
DA:86,5
DA:87,1
DA:88,4
DA:89,5
DA:90,1
DA:91,4
DA:92,5
DA:93,1
DA:94,4
DA:95,5
DA:96,1
DA:97,4
DA:98,5
DA:99,1
DA:100,4
DA:101,5
DA:105,0
DA:106,0
DA:108,0
DA:109,0
DA:110,0
DA:111,0
DA:112,0
DA:113,0
DA:114,0
DA:115,0
DA:116,0
DA:117,0
DA:118,0
DA:119,0
DA:120,0
DA:121,0
DA:122,0
DA:123,0
DA:124,0
DA:125,0
DA:126,0
DA:127,0
DA:129,0
DA:130,0
DA:131,0
DA:132,0
DA:133,0
DA:134,0
DA:135,0
DA:136,0
DA:148,4
DA:149,4
DA:150,4
DA:151,4
DA:152,4
DA:153,4
DA:154,4
DA:155,4
DA:156,4
DA:157,4
DA:158,4
DA:172,4
DA:173,4
DA:174,0
DA:175,4
DA:176,4
DA:177,4
DA:178,4
DA:179,4
DA:180,0
DA:181,4
DA:182,4
DA:183,0
DA:184,4
DA:185,4
DA:189,1
DA:190,1
DA:192,1
DA:193,1
DA:194,1
DA:195,1
DA:196,1
DA:197,1
DA:198,1
DA:199,1
DA:200,1
DA:201,1
DA:202,1
DA:203,1
DA:204,1
DA:205,1
DA:206,1
DA:207,1
DA:209,1
DA:210,1
DA:211,1
DA:212,1
DA:213,1
DA:214,1
DA:215,1
DA:224,1
DA:225,1
DA:226,1
DA:227,1
DA:228,1
DA:229,1
DA:230,1
DA:231,1
DA:232,1
DA:235,1
DA:236,1
DA:237,1
DA:238,1
DA:239,1
DA:240,1
DA:241,1
DA:242,1
DA:243,1
DA:246,1
DA:247,1
DA:248,1
DA:249,1
DA:250,1
DA:251,1
DA:252,1
DA:253,1
DA:254,1
DA:255,1
DA:256,1
DA:257,1
DA:260,1
DA:261,1
DA:262,1
DA:263,1
DA:264,1
DA:265,1
DA:266,1
DA:267,1
DA:268,1
DA:269,1
DA:270,1
DA:271,1
DA:274,1
DA:275,1
DA:276,1
DA:277,1
DA:278,1
DA:279,1
DA:280,1
DA:281,1
DA:282,1
DA:283,1
DA:284,1
DA:285,1
DA:288,1
DA:289,1
DA:290,1
DA:291,1
DA:292,1
DA:293,1
DA:294,1
DA:295,1
DA:296,1
DA:297,1
DA:298,1
DA:299,1
DA:302,1
DA:303,1
DA:304,1
DA:305,1
DA:306,1
DA:307,1
DA:308,1
DA:309,1
DA:310,1
DA:311,1
DA:312,1
DA:313,1
DA:316,1
DA:317,1
DA:318,1
DA:319,1
DA:320,1
DA:321,1
DA:322,1
DA:323,1
DA:324,1
DA:325,1
DA:326,1
DA:327,1
DA:330,1
DA:331,1
DA:332,1
DA:333,1
DA:334,1
DA:335,1
DA:336,1
DA:337,1
DA:338,1
DA:339,1
DA:340,1
DA:341,1
DA:344,1
DA:345,1
DA:346,1
DA:347,1
DA:348,1
DA:349,1
DA:350,1
DA:351,1
DA:352,1
DA:353,1
DA:354,1
DA:355,1
DA:356,1
DA:357,1
DA:360,1
DA:361,1
DA:362,1
DA:363,1
DA:364,1
DA:365,1
DA:366,1
DA:367,1
DA:368,1
DA:369,1
DA:370,1
DA:371,1
DA:372,1
DA:373,1
DA:376,1
DA:377,1
DA:378,1
DA:379,1
DA:380,1
DA:381,1
DA:382,1
DA:383,1
DA:384,1
DA:385,1
DA:386,1
DA:387,1
DA:388,1
DA:389,1
BRF:0
BRH:0
LF:281
LH:225
end_of_record
SF:/var/www/hermes/src/nvim/configuration/mod.rs
FN:222,_RNCNvXs3_NtNtCs35aDzIjzncu_6hermes4nvim13configurationNtB7_19ClientConfigPartialNtNtCs1G52j7fviBR_15nvim_oxi_luajit8poppable8Poppable3pop0Bb_
FN:29,_RNvMNtNtCs35aDzIjzncu_6hermes4nvim13configurationNtB2_12ClientConfig9with_path
FN:116,_RNvXs2_NtNtCs35aDzIjzncu_6hermes4nvim13configurationNtB5_19ClientConfigPartialNtNtCs1G52j7fviBR_15nvim_oxi_luajit8pushable8Pushable4push
FN:220,_RNvXs3_NtNtCs35aDzIjzncu_6hermes4nvim13configurationNtB5_19ClientConfigPartialNtNtCs1G52j7fviBR_15nvim_oxi_luajit8poppable8Poppable3pop
FN:60,_RNvMs0_NtNtCs35aDzIjzncu_6hermes4nvim13configurationNtB5_19ClientConfigPartial8apply_to
FN:77,_RNvXs1_NtNtCs35aDzIjzncu_6hermes4nvim13configurationNtB5_19ClientConfigPartialNtNtCsjJN1CJkPTUm_14nvim_oxi_types10conversion10FromObject11from_object
FN:47,_RNvXs_NtNtCs35aDzIjzncu_6hermes4nvim13configurationNtB4_12ClientConfigNtNtCs4kUJL3MZFFz_4core7default7Default7default
FN:82,_RNCNvXs1_NtNtCs35aDzIjzncu_6hermes4nvim13configurationNtB7_19ClientConfigPartialNtNtCsjJN1CJkPTUm_14nvim_oxi_types10conversion10FromObject11from_object0Bb_
FN:92,_RNCNvXs1_NtNtCs35aDzIjzncu_6hermes4nvim13configurationNtB7_19ClientConfigPartialNtNtCsjJN1CJkPTUm_14nvim_oxi_types10conversion10FromObject11from_objects0_0Bb_
FN:97,_RNCNvXs1_NtNtCs35aDzIjzncu_6hermes4nvim13configurationNtB7_19ClientConfigPartialNtNtCsjJN1CJkPTUm_14nvim_oxi_types10conversion10FromObject11from_objects1_0Bb_
FN:102,_RNCNvXs1_NtNtCs35aDzIjzncu_6hermes4nvim13configurationNtB7_19ClientConfigPartialNtNtCsjJN1CJkPTUm_14nvim_oxi_types10conversion10FromObject11from_objects2_0Bb_
FN:87,_RNCNvXs1_NtNtCs35aDzIjzncu_6hermes4nvim13configurationNtB7_19ClientConfigPartialNtNtCsjJN1CJkPTUm_14nvim_oxi_types10conversion10FromObject11from_objects_0Bb_
FN:233,_RNvNtNtNtCs35aDzIjzncu_6hermes4nvim13configuration5testss_50test_client_config_partial_apply_to_updates_nested
FN:314,_RNvNtNtNtCs35aDzIjzncu_6hermes4nvim13configuration5testss_56test_client_config_partial_from_object_parses_empty_dict
FN:326,_RNvNtNtNtCs35aDzIjzncu_6hermes4nvim13configuration5testss_57test_client_config_partial_from_object_parses_full_config
FN:270,_RNvNtNtNtCs35aDzIjzncu_6hermes4nvim13configuration5testss_59test_client_config_partial_apply_to_preserves_all_when_none
FNDA:0,_RNCNvXs3_NtNtCs35aDzIjzncu_6hermes4nvim13configurationNtB7_19ClientConfigPartialNtNtCs1G52j7fviBR_15nvim_oxi_luajit8poppable8Poppable3pop0Bb_
FNDA:0,_RNvMNtNtCs35aDzIjzncu_6hermes4nvim13configurationNtB2_12ClientConfig9with_path
FNDA:0,_RNvXs2_NtNtCs35aDzIjzncu_6hermes4nvim13configurationNtB5_19ClientConfigPartialNtNtCs1G52j7fviBR_15nvim_oxi_luajit8pushable8Pushable4push
FNDA:0,_RNvXs3_NtNtCs35aDzIjzncu_6hermes4nvim13configurationNtB5_19ClientConfigPartialNtNtCs1G52j7fviBR_15nvim_oxi_luajit8poppable8Poppable3pop
FNDA:2,_RNvMs0_NtNtCs35aDzIjzncu_6hermes4nvim13configurationNtB5_19ClientConfigPartial8apply_to
FNDA:2,_RNvXs1_NtNtCs35aDzIjzncu_6hermes4nvim13configurationNtB5_19ClientConfigPartialNtNtCsjJN1CJkPTUm_14nvim_oxi_types10conversion10FromObject11from_object
FNDA:1,_RNvXs_NtNtCs35aDzIjzncu_6hermes4nvim13configurationNtB4_12ClientConfigNtNtCs4kUJL3MZFFz_4core7default7Default7default
FNDA:1,_RNCNvXs1_NtNtCs35aDzIjzncu_6hermes4nvim13configurationNtB7_19ClientConfigPartialNtNtCsjJN1CJkPTUm_14nvim_oxi_types10conversion10FromObject11from_object0Bb_
FNDA:1,_RNCNvXs1_NtNtCs35aDzIjzncu_6hermes4nvim13configurationNtB7_19ClientConfigPartialNtNtCsjJN1CJkPTUm_14nvim_oxi_types10conversion10FromObject11from_objects0_0Bb_
FNDA:1,_RNCNvXs1_NtNtCs35aDzIjzncu_6hermes4nvim13configurationNtB7_19ClientConfigPartialNtNtCsjJN1CJkPTUm_14nvim_oxi_types10conversion10FromObject11from_objects1_0Bb_
FNDA:0,_RNCNvXs1_NtNtCs35aDzIjzncu_6hermes4nvim13configurationNtB7_19ClientConfigPartialNtNtCsjJN1CJkPTUm_14nvim_oxi_types10conversion10FromObject11from_objects2_0Bb_
FNDA:1,_RNCNvXs1_NtNtCs35aDzIjzncu_6hermes4nvim13configurationNtB7_19ClientConfigPartialNtNtCsjJN1CJkPTUm_14nvim_oxi_types10conversion10FromObject11from_objects_0Bb_
FNDA:1,_RNvNtNtNtCs35aDzIjzncu_6hermes4nvim13configuration5testss_50test_client_config_partial_apply_to_updates_nested
FNDA:1,_RNvNtNtNtCs35aDzIjzncu_6hermes4nvim13configuration5testss_56test_client_config_partial_from_object_parses_empty_dict
FNDA:1,_RNvNtNtNtCs35aDzIjzncu_6hermes4nvim13configuration5testss_57test_client_config_partial_from_object_parses_full_config
FNDA:1,_RNvNtNtNtCs35aDzIjzncu_6hermes4nvim13configuration5testss_59test_client_config_partial_apply_to_preserves_all_when_none
FNF:16
FNH:11
DA:29,0
DA:30,0
DA:31,0
DA:32,0
DA:33,0
DA:47,1
DA:48,1
DA:49,1
DA:50,1
DA:51,1
DA:52,1
DA:53,1
DA:54,1
DA:55,1
DA:60,2
DA:61,2
DA:62,1
DA:63,1
DA:64,2
DA:65,1
DA:66,1
DA:67,2
DA:68,1
DA:69,1
DA:70,2
DA:71,1
DA:72,1
DA:73,2
DA:77,2
DA:78,2
DA:80,2
DA:81,2
DA:82,2
DA:83,2
DA:85,2
DA:86,2
DA:87,2
DA:88,2
DA:90,2
DA:91,2
DA:92,2
DA:93,2
DA:95,2
DA:96,2
DA:97,2
DA:98,2
DA:100,2
DA:101,2
DA:102,2
DA:103,2
DA:105,2
DA:106,2
DA:107,2
DA:108,2
DA:109,2
DA:110,2
DA:111,2
DA:112,2
DA:116,0
DA:117,0
DA:119,0
DA:120,0
DA:121,0
DA:122,0
DA:123,0
DA:124,0
DA:125,0
DA:126,0
DA:127,0
DA:128,0
DA:129,0
DA:130,0
DA:131,0
DA:132,0
DA:133,0
DA:134,0
DA:135,0
DA:136,0
DA:137,0
DA:139,0
DA:140,0
DA:141,0
DA:142,0
DA:143,0
DA:144,0
DA:145,0
DA:146,0
DA:147,0
DA:148,0
DA:149,0
DA:150,0
DA:151,0
DA:152,0
DA:153,0
DA:154,0
DA:156,0
DA:157,0
DA:158,0
DA:159,0
DA:160,0
DA:161,0
DA:162,0
DA:164,0
DA:165,0
DA:166,0
DA:167,0
DA:168,0
DA:169,0
DA:170,0
DA:171,0
DA:172,0
DA:173,0
DA:174,0
DA:175,0
DA:176,0
DA:177,0
DA:178,0
DA:179,0
DA:180,0
DA:181,0
DA:182,0
DA:183,0
DA:184,0
DA:185,0
DA:186,0
DA:187,0
DA:188,0
DA:189,0
DA:190,0
DA:191,0
DA:192,0
DA:193,0
DA:194,0
DA:195,0
DA:196,0
DA:197,0
DA:198,0
DA:199,0
DA:200,0
DA:201,0
DA:202,0
DA:203,0
DA:204,0
DA:205,0
DA:206,0
DA:207,0
DA:208,0
DA:209,0
DA:210,0
DA:211,0
DA:212,0
DA:213,0
DA:215,0
DA:216,0
DA:220,0
DA:221,0
DA:222,0
DA:223,0
DA:233,1
DA:234,1
DA:235,1
DA:236,1
DA:237,1
DA:238,1
DA:239,1
DA:240,1
DA:241,1
DA:242,1
DA:243,1
DA:244,1
DA:245,1
DA:246,1
DA:247,1
DA:248,1
DA:249,1
DA:250,1
DA:251,1
DA:252,1
DA:253,1
DA:254,1
DA:255,1
DA:256,1
DA:259,1
DA:260,1
DA:261,1
DA:262,1
DA:265,1
DA:266,1
DA:267,1
DA:270,1
DA:271,1
DA:272,1
DA:273,1
DA:274,1
DA:275,1
DA:276,1
DA:277,1
DA:278,1
DA:279,1
DA:280,1
DA:281,1
DA:282,1
DA:283,1
DA:284,1
DA:285,1
DA:286,1
DA:287,1
DA:288,1
DA:289,1
DA:290,1
DA:291,1
DA:292,1
DA:293,1
DA:294,1
DA:295,1
DA:296,1
DA:297,1
DA:298,1
DA:299,1
DA:300,1
DA:301,1
DA:302,1
DA:303,1
DA:304,1
DA:307,1
DA:308,1
DA:309,1
DA:310,1
DA:311,1
DA:314,1
DA:315,1
DA:316,1
DA:317,1
DA:319,1
DA:320,1
DA:321,1
DA:322,1
DA:323,1
DA:326,1
DA:327,1
DA:328,1
DA:330,1
DA:331,1
DA:333,1
DA:334,1
DA:336,1
DA:337,1
DA:339,1
DA:340,1
DA:341,1
DA:342,1
DA:343,1
DA:345,1
DA:346,1
DA:348,1
DA:349,1
DA:350,1
DA:351,1
DA:352,1
BRF:0
BRH:0
LF:265
LH:158
end_of_record
SF:/var/www/hermes/src/nvim/configuration/permissions.rs
FN:49,_RNCNvXs0_NtNtNtCs35aDzIjzncu_6hermes4nvim13configuration11permissionsNtB7_11PermissionsNtNtCs1G52j7fviBR_15nvim_oxi_luajit8poppable8Poppable3pop0Bd_
FN:45,_RNvXs0_NtNtNtCs35aDzIjzncu_6hermes4nvim13configuration11permissionsNtB5_11PermissionsNtNtCs1G52j7fviBR_15nvim_oxi_luajit8poppable8Poppable3pop
FN:29,_RNvXs_NtNtNtCs35aDzIjzncu_6hermes4nvim13configuration11permissionsNtB4_11PermissionsNtNtCs1G52j7fviBR_15nvim_oxi_luajit8pushable8Pushable4push
FN:186,_RNvMs2_NtNtNtCs35aDzIjzncu_6hermes4nvim13configuration11permissionsNtB5_18PermissionsPartial8apply_to
FN:17,_RNvXNtNtNtCs35aDzIjzncu_6hermes4nvim13configuration11permissionsNtB2_11PermissionsNtNtCs4kUJL3MZFFz_4core7default7Default7default
FN:56,_RNvXs1_NtNtNtCs35aDzIjzncu_6hermes4nvim13configuration11permissionsNtB5_11PermissionsNtNtCsjJN1CJkPTUm_14nvim_oxi_types10conversion10FromObject11from_object
FN:206,_RNvXs3_NtNtNtCs35aDzIjzncu_6hermes4nvim13configuration11permissionsNtB5_18PermissionsPartialNtNtCsjJN1CJkPTUm_14nvim_oxi_types10conversion10FromObject11from_object
FN:105,_RNvNtNtNtNtCs35aDzIjzncu_6hermes4nvim13configuration11permissions5tests15arb_permissions
FN:158,_RNvNtNtNtNtCs35aDzIjzncu_6hermes4nvim13configuration11permissions5testss_30test_permissions_custom_values
FN:148,_RNvNtNtNtNtCs35aDzIjzncu_6hermes4nvim13configuration11permissions5testss_33test_permissions_default_all_true
FN:113,_RNCNvNtNtNtNtCs35aDzIjzncu_6hermes4nvim13configuration11permissions5tests15arb_permissions0Bb_
FN:61,_RNCNvXs1_NtNtNtCs35aDzIjzncu_6hermes4nvim13configuration11permissionsNtB7_11PermissionsNtNtCsjJN1CJkPTUm_14nvim_oxi_types10conversion10FromObject11from_object0Bd_
FN:73,_RNCNvXs1_NtNtNtCs35aDzIjzncu_6hermes4nvim13configuration11permissionsNtB7_11PermissionsNtNtCsjJN1CJkPTUm_14nvim_oxi_types10conversion10FromObject11from_objects0_0Bd_
FN:79,_RNCNvXs1_NtNtNtCs35aDzIjzncu_6hermes4nvim13configuration11permissionsNtB7_11PermissionsNtNtCsjJN1CJkPTUm_14nvim_oxi_types10conversion10FromObject11from_objects1_0Bd_
FN:85,_RNCNvXs1_NtNtNtCs35aDzIjzncu_6hermes4nvim13configuration11permissionsNtB7_11PermissionsNtNtCsjJN1CJkPTUm_14nvim_oxi_types10conversion10FromObject11from_objects2_0Bd_
FN:67,_RNCNvXs1_NtNtNtCs35aDzIjzncu_6hermes4nvim13configuration11permissionsNtB7_11PermissionsNtNtCsjJN1CJkPTUm_14nvim_oxi_types10conversion10FromObject11from_objects_0Bd_
FN:211,_RNCNvXs3_NtNtNtCs35aDzIjzncu_6hermes4nvim13configuration11permissionsNtB7_18PermissionsPartialNtNtCsjJN1CJkPTUm_14nvim_oxi_types10conversion10FromObject11from_object0Bd_
FN:219,_RNCNvXs3_NtNtNtCs35aDzIjzncu_6hermes4nvim13configuration11permissionsNtB7_18PermissionsPartialNtNtCsjJN1CJkPTUm_14nvim_oxi_types10conversion10FromObject11from_objects0_0Bd_
FN:223,_RNCNvXs3_NtNtNtCs35aDzIjzncu_6hermes4nvim13configuration11permissionsNtB7_18PermissionsPartialNtNtCsjJN1CJkPTUm_14nvim_oxi_types10conversion10FromObject11from_objects1_0Bd_
FN:227,_RNCNvXs3_NtNtNtCs35aDzIjzncu_6hermes4nvim13configuration11permissionsNtB7_18PermissionsPartialNtNtCsjJN1CJkPTUm_14nvim_oxi_types10conversion10FromObject11from_objects2_0Bd_
FN:215,_RNCNvXs3_NtNtNtCs35aDzIjzncu_6hermes4nvim13configuration11permissionsNtB7_18PermissionsPartialNtNtCsjJN1CJkPTUm_14nvim_oxi_types10conversion10FromObject11from_objects_0Bd_
FNDA:0,_RNCNvXs0_NtNtNtCs35aDzIjzncu_6hermes4nvim13configuration11permissionsNtB7_11PermissionsNtNtCs1G52j7fviBR_15nvim_oxi_luajit8poppable8Poppable3pop0Bd_
FNDA:0,_RNvXs0_NtNtNtCs35aDzIjzncu_6hermes4nvim13configuration11permissionsNtB5_11PermissionsNtNtCs1G52j7fviBR_15nvim_oxi_luajit8poppable8Poppable3pop
FNDA:0,_RNvXs_NtNtNtCs35aDzIjzncu_6hermes4nvim13configuration11permissionsNtB4_11PermissionsNtNtCs1G52j7fviBR_15nvim_oxi_luajit8pushable8Pushable4push
FNDA:1,_RNvMs2_NtNtNtCs35aDzIjzncu_6hermes4nvim13configuration11permissionsNtB5_18PermissionsPartial8apply_to
FNDA:2,_RNvXNtNtNtCs35aDzIjzncu_6hermes4nvim13configuration11permissionsNtB2_11PermissionsNtNtCs4kUJL3MZFFz_4core7default7Default7default
FNDA:256,_RNvXs1_NtNtNtCs35aDzIjzncu_6hermes4nvim13configuration11permissionsNtB5_11PermissionsNtNtCsjJN1CJkPTUm_14nvim_oxi_types10conversion10FromObject11from_object
FNDA:1,_RNvXs3_NtNtNtCs35aDzIjzncu_6hermes4nvim13configuration11permissionsNtB5_18PermissionsPartialNtNtCsjJN1CJkPTUm_14nvim_oxi_types10conversion10FromObject11from_object
FNDA:1,_RNvNtNtNtNtCs35aDzIjzncu_6hermes4nvim13configuration11permissions5tests15arb_permissions
FNDA:1,_RNvNtNtNtNtCs35aDzIjzncu_6hermes4nvim13configuration11permissions5testss_30test_permissions_custom_values
FNDA:1,_RNvNtNtNtNtCs35aDzIjzncu_6hermes4nvim13configuration11permissions5testss_33test_permissions_default_all_true
FNDA:256,_RNCNvNtNtNtNtCs35aDzIjzncu_6hermes4nvim13configuration11permissions5tests15arb_permissions0Bb_
FNDA:256,_RNCNvXs1_NtNtNtCs35aDzIjzncu_6hermes4nvim13configuration11permissionsNtB7_11PermissionsNtNtCsjJN1CJkPTUm_14nvim_oxi_types10conversion10FromObject11from_object0Bd_
FNDA:256,_RNCNvXs1_NtNtNtCs35aDzIjzncu_6hermes4nvim13configuration11permissionsNtB7_11PermissionsNtNtCsjJN1CJkPTUm_14nvim_oxi_types10conversion10FromObject11from_objects0_0Bd_
FNDA:256,_RNCNvXs1_NtNtNtCs35aDzIjzncu_6hermes4nvim13configuration11permissionsNtB7_11PermissionsNtNtCsjJN1CJkPTUm_14nvim_oxi_types10conversion10FromObject11from_objects1_0Bd_
FNDA:256,_RNCNvXs1_NtNtNtCs35aDzIjzncu_6hermes4nvim13configuration11permissionsNtB7_11PermissionsNtNtCsjJN1CJkPTUm_14nvim_oxi_types10conversion10FromObject11from_objects2_0Bd_
FNDA:256,_RNCNvXs1_NtNtNtCs35aDzIjzncu_6hermes4nvim13configuration11permissionsNtB7_11PermissionsNtNtCsjJN1CJkPTUm_14nvim_oxi_types10conversion10FromObject11from_objects_0Bd_
FNDA:1,_RNCNvXs3_NtNtNtCs35aDzIjzncu_6hermes4nvim13configuration11permissionsNtB7_18PermissionsPartialNtNtCsjJN1CJkPTUm_14nvim_oxi_types10conversion10FromObject11from_object0Bd_
FNDA:0,_RNCNvXs3_NtNtNtCs35aDzIjzncu_6hermes4nvim13configuration11permissionsNtB7_18PermissionsPartialNtNtCsjJN1CJkPTUm_14nvim_oxi_types10conversion10FromObject11from_objects0_0Bd_
FNDA:0,_RNCNvXs3_NtNtNtCs35aDzIjzncu_6hermes4nvim13configuration11permissionsNtB7_18PermissionsPartialNtNtCsjJN1CJkPTUm_14nvim_oxi_types10conversion10FromObject11from_objects1_0Bd_
FNDA:0,_RNCNvXs3_NtNtNtCs35aDzIjzncu_6hermes4nvim13configuration11permissionsNtB7_18PermissionsPartialNtNtCsjJN1CJkPTUm_14nvim_oxi_types10conversion10FromObject11from_objects2_0Bd_
FNDA:0,_RNCNvXs3_NtNtNtCs35aDzIjzncu_6hermes4nvim13configuration11permissionsNtB7_18PermissionsPartialNtNtCsjJN1CJkPTUm_14nvim_oxi_types10conversion10FromObject11from_objects_0Bd_
FNF:21
FNH:14
DA:17,2
DA:18,2
DA:19,2
DA:20,2
DA:21,2
DA:22,2
DA:23,2
DA:24,2
DA:25,2
DA:29,0
DA:31,0
DA:33,0
DA:34,0
DA:35,0
DA:36,0
DA:37,0
DA:39,0
DA:41,0
DA:45,0
DA:46,0
DA:47,0
DA:48,0
DA:49,0
DA:50,0
DA:51,0
DA:52,0
DA:56,256
DA:57,256
DA:59,256
DA:60,256
DA:61,256
DA:62,256
DA:63,256
DA:65,256
DA:66,256
DA:67,256
DA:68,256
DA:69,256
DA:71,256
DA:72,256
DA:73,256
DA:74,256
DA:75,256
DA:77,256
DA:78,256
DA:79,256
DA:80,256
DA:81,256
DA:83,256
DA:84,256
DA:85,256
DA:86,256
DA:87,256
DA:89,256
DA:90,256
DA:91,256
DA:92,256
DA:93,256
DA:94,256
DA:95,256
DA:96,256
DA:105,1
DA:106,1
DA:107,1
DA:108,1
DA:109,1
DA:110,1
DA:111,1
DA:112,1
DA:113,256
DA:114,256
DA:115,256
DA:116,256
DA:117,256
DA:118,256
DA:119,256
DA:120,256
DA:121,256
DA:122,1
DA:148,1
DA:149,1
DA:150,1
DA:151,1
DA:152,1
DA:153,1
DA:154,1
DA:155,1
DA:158,1
DA:159,1
DA:160,1
DA:161,1
DA:162,1
DA:163,1
DA:164,1
DA:165,1
DA:166,1
DA:167,1
DA:168,1
DA:169,1
DA:170,1
DA:171,1
DA:186,1
DA:187,1
DA:188,1
DA:189,1
DA:190,1
DA:191,0
DA:192,1
DA:193,1
DA:194,0
DA:195,1
DA:196,1
DA:197,0
DA:198,1
DA:199,1
DA:200,0
DA:201,1
DA:202,1
DA:206,1
DA:207,1
DA:209,1
DA:210,1
DA:211,1
DA:212,1
DA:213,1
DA:214,1
DA:215,1
DA:216,1
DA:217,1
DA:218,1
DA:219,1
DA:220,1
DA:221,1
DA:222,1
DA:223,1
DA:224,1
DA:225,1
DA:226,1
DA:227,1
DA:228,1
DA:230,1
DA:231,1
DA:232,1
DA:233,1
DA:234,1
DA:235,1
DA:236,1
DA:237,1
BRF:0
BRH:0
LF:159
LH:134
end_of_record
SF:/var/www/hermes/src/nvim/configuration/terminal.rs
FN:36,_RNvMs_NtNtNtCs35aDzIjzncu_6hermes4nvim13configuration8terminalNtB4_21TerminalConfigPartial8apply_to
FN:15,_RNvXNtNtNtCs35aDzIjzncu_6hermes4nvim13configuration8terminalNtB2_14TerminalConfigNtNtCs4kUJL3MZFFz_4core7default7Default7default
FN:53,_RNvXs0_NtNtNtCs35aDzIjzncu_6hermes4nvim13configuration8terminalNtB5_21TerminalConfigPartialNtNtCsjJN1CJkPTUm_14nvim_oxi_types10conversion10FromObject11from_object
FN:168,_RNvNtNtNtNtCs35aDzIjzncu_6hermes4nvim13configuration8terminal5testss_44test_terminal_partial_from_object_empty_dict
FN:87,_RNvNtNtNtNtCs35aDzIjzncu_6hermes4nvim13configuration8terminal5testss_48test_terminal_partial_apply_to_updates_specified
FN:120,_RNvNtNtNtNtCs35aDzIjzncu_6hermes4nvim13configuration8terminal5testss_49test_terminal_partial_apply_to_updates_all_fields
FN:136,_RNvNtNtNtNtCs35aDzIjzncu_6hermes4nvim13configuration8terminal5testss_50test_terminal_partial_from_object_parses_correctly
FN:103,_RNvNtNtNtNtCs35aDzIjzncu_6hermes4nvim13configuration8terminal5testss_54test_terminal_partial_apply_to_preserves_all_when_none
FN:153,_RNvNtNtNtNtCs35aDzIjzncu_6hermes4nvim13configuration8terminal5testss_56test_terminal_partial_from_object_handles_missing_fields
FN:58,_RNCNvXs0_NtNtNtCs35aDzIjzncu_6hermes4nvim13configuration8terminalNtB7_21TerminalConfigPartialNtNtCsjJN1CJkPTUm_14nvim_oxi_types10conversion10FromObject11from_object0Bd_
FN:66,_RNCNvXs0_NtNtNtCs35aDzIjzncu_6hermes4nvim13configuration8terminalNtB7_21TerminalConfigPartialNtNtCsjJN1CJkPTUm_14nvim_oxi_types10conversion10FromObject11from_objects0_0Bd_
FN:70,_RNCNvXs0_NtNtNtCs35aDzIjzncu_6hermes4nvim13configuration8terminalNtB7_21TerminalConfigPartialNtNtCsjJN1CJkPTUm_14nvim_oxi_types10conversion10FromObject11from_objects1_0Bd_
FN:62,_RNCNvXs0_NtNtNtCs35aDzIjzncu_6hermes4nvim13configuration8terminalNtB7_21TerminalConfigPartialNtNtCsjJN1CJkPTUm_14nvim_oxi_types10conversion10FromObject11from_objects_0Bd_
FNDA:4,_RNvMs_NtNtNtCs35aDzIjzncu_6hermes4nvim13configuration8terminalNtB4_21TerminalConfigPartial8apply_to
FNDA:3,_RNvXNtNtNtCs35aDzIjzncu_6hermes4nvim13configuration8terminalNtB2_14TerminalConfigNtNtCs4kUJL3MZFFz_4core7default7Default7default
FNDA:4,_RNvXs0_NtNtNtCs35aDzIjzncu_6hermes4nvim13configuration8terminalNtB5_21TerminalConfigPartialNtNtCsjJN1CJkPTUm_14nvim_oxi_types10conversion10FromObject11from_object
FNDA:1,_RNvNtNtNtNtCs35aDzIjzncu_6hermes4nvim13configuration8terminal5testss_44test_terminal_partial_from_object_empty_dict
FNDA:1,_RNvNtNtNtNtCs35aDzIjzncu_6hermes4nvim13configuration8terminal5testss_48test_terminal_partial_apply_to_updates_specified
FNDA:1,_RNvNtNtNtNtCs35aDzIjzncu_6hermes4nvim13configuration8terminal5testss_49test_terminal_partial_apply_to_updates_all_fields
FNDA:1,_RNvNtNtNtNtCs35aDzIjzncu_6hermes4nvim13configuration8terminal5testss_50test_terminal_partial_from_object_parses_correctly
FNDA:1,_RNvNtNtNtNtCs35aDzIjzncu_6hermes4nvim13configuration8terminal5testss_54test_terminal_partial_apply_to_preserves_all_when_none
FNDA:1,_RNvNtNtNtNtCs35aDzIjzncu_6hermes4nvim13configuration8terminal5testss_56test_terminal_partial_from_object_handles_missing_fields
FNDA:2,_RNCNvXs0_NtNtNtCs35aDzIjzncu_6hermes4nvim13configuration8terminalNtB7_21TerminalConfigPartialNtNtCsjJN1CJkPTUm_14nvim_oxi_types10conversion10FromObject11from_object0Bd_
FNDA:1,_RNCNvXs0_NtNtNtCs35aDzIjzncu_6hermes4nvim13configuration8terminalNtB7_21TerminalConfigPartialNtNtCsjJN1CJkPTUm_14nvim_oxi_types10conversion10FromObject11from_objects0_0Bd_
FNDA:1,_RNCNvXs0_NtNtNtCs35aDzIjzncu_6hermes4nvim13configuration8terminalNtB7_21TerminalConfigPartialNtNtCsjJN1CJkPTUm_14nvim_oxi_types10conversion10FromObject11from_objects1_0Bd_
FNDA:2,_RNCNvXs0_NtNtNtCs35aDzIjzncu_6hermes4nvim13configuration8terminalNtB7_21TerminalConfigPartialNtNtCsjJN1CJkPTUm_14nvim_oxi_types10conversion10FromObject11from_objects_0Bd_
FNF:13
FNH:13
DA:15,3
DA:16,3
DA:17,3
DA:18,3
DA:19,3
DA:20,3
DA:21,3
DA:22,3
DA:36,4
DA:37,4
DA:38,2
DA:39,2
DA:40,4
DA:41,2
DA:42,2
DA:43,4
DA:44,1
DA:45,3
DA:46,4
DA:47,1
DA:48,3
DA:49,4
DA:53,4
DA:54,4
DA:56,4
DA:57,4
DA:58,4
DA:59,4
DA:60,4
DA:61,4
DA:62,4
DA:63,4
DA:64,4
DA:65,4
DA:66,4
DA:67,4
DA:68,4
DA:69,4
DA:70,4
DA:71,4
DA:73,4
DA:74,4
DA:75,4
DA:76,4
DA:77,4
DA:78,4
DA:79,4
DA:87,1
DA:88,1
DA:89,1
DA:90,1
DA:91,1
DA:92,1
DA:93,1
DA:94,1
DA:95,1
DA:96,1
DA:97,1
DA:98,1
DA:99,1
DA:100,1
DA:103,1
DA:104,1
DA:105,1
DA:106,1
DA:107,1
DA:108,1
DA:109,1
DA:110,1
DA:111,1
DA:113,1
DA:114,1
DA:115,1
DA:116,1
DA:117,1
DA:120,1
DA:121,1
DA:122,1
DA:123,1
DA:124,1
DA:125,1
DA:126,1
DA:127,1
DA:128,1
DA:129,1
DA:130,1
DA:131,1
DA:132,1
DA:133,1
DA:136,1
DA:137,1
DA:138,1
DA:139,1
DA:140,1
DA:141,1
DA:143,1
DA:144,1
DA:146,1
DA:147,1
DA:148,1
DA:149,1
DA:150,1
DA:153,1
DA:154,1
DA:155,1
DA:158,1
DA:159,1
DA:161,1
DA:162,1
DA:163,1
DA:164,1
DA:165,1
DA:168,1
DA:169,1
DA:170,1
DA:171,1
DA:173,1
DA:174,1
DA:175,1
DA:176,1
DA:177,1
BRF:0
BRH:0
LF:125
LH:125
end_of_record
SF:/var/www/hermes/src/nvim/mod.rs
FN:29,_RNCNvNtCs35aDzIjzncu_6hermes4nvim6hermes0B5_
FN:21,_RNvNtCs35aDzIjzncu_6hermes4nvim6hermes
FNDA:0,_RNCNvNtCs35aDzIjzncu_6hermes4nvim6hermes0B5_
FNDA:0,_RNvNtCs35aDzIjzncu_6hermes4nvim6hermes
FNF:2
FNH:0
DA:21,0
DA:22,0
DA:23,0
DA:24,0
DA:25,0
DA:26,0
DA:27,0
DA:29,0
DA:30,0
DA:31,0
DA:32,0
DA:33,0
DA:34,0
DA:36,0
DA:37,0
DA:38,0
DA:39,0
DA:40,0
DA:41,0
DA:42,0
DA:43,0
DA:44,0
DA:45,0
DA:46,0
DA:47,0
DA:48,0
DA:49,0
DA:50,0
DA:51,0
DA:52,0
DA:53,0
DA:54,0
DA:55,0
DA:56,0
DA:57,0
DA:58,0
DA:59,0
DA:60,0
DA:61,0
DA:62,0
DA:63,0
BRF:0
BRH:0
LF:43
LH:0
end_of_record
SF:/var/www/hermes/src/nvim/parse/communication.rs
FN:3,_RNvNtNtNtCs35aDzIjzncu_6hermes4nvim5parse13communication13communication
FN:21,_RNvNtNtNtNtCs35aDzIjzncu_6hermes4nvim5parse13communication5testss_23test_communication_text
FNDA:1,_RNvNtNtNtCs35aDzIjzncu_6hermes4nvim5parse13communication13communication
FNDA:1,_RNvNtNtNtNtCs35aDzIjzncu_6hermes4nvim5parse13communication5testss_23test_communication_text
FNF:2
FNH:2
DA:3,1
DA:4,1
DA:5,0
DA:6,0
DA:7,0
DA:8,1
DA:9,0
DA:10,0
DA:12,1
DA:21,1
DA:23,1
DA:24,1
DA:25,1
DA:26,1
BRF:0
BRH:0
LF:14
LH:9
end_of_record
SF:/var/www/hermes/src/nvim/parse/mod.rs
FN:19,_RNCNvNtNtCs35aDzIjzncu_6hermes4nvim5parse14json_to_object0B7_
FN:11,_RNvNtNtCs35aDzIjzncu_6hermes4nvim5parse14json_to_object
FN:44,_RNvNtNtCs35aDzIjzncu_6hermes4nvim5parse30convert_metadata_to_lua_object
FNDA:0,_RNCNvNtNtCs35aDzIjzncu_6hermes4nvim5parse14json_to_object0B7_
FNDA:0,_RNvNtNtCs35aDzIjzncu_6hermes4nvim5parse14json_to_object
FNDA:0,_RNvNtNtCs35aDzIjzncu_6hermes4nvim5parse30convert_metadata_to_lua_object
FNF:3
FNH:0
DA:11,0
DA:12,0
DA:13,0
DA:14,0
DA:15,0
DA:16,0
DA:17,0
DA:19,0
DA:22,0
DA:23,0
DA:24,0
DA:25,0
DA:26,0
DA:27,0
DA:28,0
DA:30,0
DA:32,0
DA:33,0
DA:34,0
DA:35,0
DA:36,0
DA:37,0
DA:39,0
DA:42,0
DA:44,0
DA:45,0
DA:46,0
DA:48,0
DA:50,0
BRF:0
BRH:0
LF:30
LH:0
end_of_record
SF:/var/www/hermes/src/nvim/parse/response/authenticate_response.rs
FN:5,_RNvNtNtNtNtCs35aDzIjzncu_6hermes4nvim5parse8response21authenticate_response21authenticate_response
FNDA:0,_RNvNtNtNtNtCs35aDzIjzncu_6hermes4nvim5parse8response21authenticate_response21authenticate_response
FNF:1
FNH:0
DA:5,0
DA:6,0
DA:8,0
DA:9,0
DA:10,0
DA:12,0
DA:13,0
BRF:0
BRH:0
LF:7
LH:0
end_of_record
SF:/var/www/hermes/src/nvim/parse/response/config_option_response.rs
FN:5,_RNvNtNtNtNtCs35aDzIjzncu_6hermes4nvim5parse8response22config_option_response22config_option_response
FNDA:0,_RNvNtNtNtNtCs35aDzIjzncu_6hermes4nvim5parse8response22config_option_response22config_option_response
FNF:1
FNH:0
DA:5,0
DA:6,0
DA:8,0
DA:9,0
DA:10,0
DA:11,0
DA:12,0
DA:14,0
DA:16,0
DA:17,0
DA:18,0
DA:20,0
DA:21,0
BRF:0
BRH:0
LF:13
LH:0
end_of_record
SF:/var/www/hermes/src/nvim/parse/response/initialize_response.rs
FN:65,_RNCNvNtNtNtNtCs35aDzIjzncu_6hermes4nvim5parse8response19initialize_response19initialize_response0Bb_
FN:4,_RNvNtNtNtNtCs35aDzIjzncu_6hermes4nvim5parse8response19initialize_response19initialize_response
FNDA:0,_RNCNvNtNtNtNtCs35aDzIjzncu_6hermes4nvim5parse8response19initialize_response19initialize_response0Bb_
FNDA:0,_RNvNtNtNtNtCs35aDzIjzncu_6hermes4nvim5parse8response19initialize_response19initialize_response
FNF:2
FNH:0
DA:4,0
DA:5,0
DA:7,0
DA:9,0
DA:10,0
DA:12,0
DA:13,0
DA:15,0
DA:17,0
DA:19,0
DA:21,0
DA:23,0
DA:24,0
DA:25,0
DA:26,0
DA:28,0
DA:30,0
DA:31,0
DA:32,0
DA:33,0
DA:35,0
DA:36,0
DA:37,0
DA:38,0
DA:39,0
DA:40,0
DA:41,0
DA:42,0
DA:43,0
DA:44,0
DA:45,0
DA:46,0
DA:47,0
DA:48,0
DA:49,0
DA:50,0
DA:51,0
DA:52,0
DA:53,0
DA:54,0
DA:55,0
DA:56,0
DA:57,0
DA:58,0
DA:59,0
DA:60,0
DA:62,0
DA:64,0
DA:65,0
DA:66,0
DA:67,0
DA:68,0
DA:69,0
DA:70,0
DA:71,0
DA:72,0
DA:73,0
DA:74,0
DA:76,0
DA:77,0
DA:78,0
DA:79,0
DA:80,0
DA:81,0
DA:82,0
DA:83,0
DA:84,0
DA:86,0
DA:87,0
DA:88,0
DA:90,0
DA:91,0
BRF:0
BRH:0
LF:73
LH:0
end_of_record
SF:/var/www/hermes/src/nvim/parse/response/mod.rs
FN:63,_RNCNCNvNtNtNtCs35aDzIjzncu_6hermes4nvim5parse8response27parse_session_config_options_00Bb_
FN:48,_RNCNvNtNtNtCs35aDzIjzncu_6hermes4nvim5parse8response27parse_session_config_option0B9_
FN:59,_RNCNvNtNtNtCs35aDzIjzncu_6hermes4nvim5parse8response27parse_session_config_options_0B9_
FN:30,_RNvNtNtNtCs35aDzIjzncu_6hermes4nvim5parse8response27parse_session_config_option
FNDA:0,_RNCNCNvNtNtNtCs35aDzIjzncu_6hermes4nvim5parse8response27parse_session_config_options_00Bb_
FNDA:0,_RNCNvNtNtNtCs35aDzIjzncu_6hermes4nvim5parse8response27parse_session_config_option0B9_
FNDA:0,_RNCNvNtNtNtCs35aDzIjzncu_6hermes4nvim5parse8response27parse_session_config_options_0B9_
FNDA:0,_RNvNtNtNtCs35aDzIjzncu_6hermes4nvim5parse8response27parse_session_config_option
FNF:4
FNH:0
DA:30,0
DA:31,0
DA:32,0
DA:33,0
DA:34,0
DA:35,0
DA:36,0
DA:37,0
DA:38,0
DA:39,0
DA:40,0
DA:41,0
DA:42,0
DA:44,0
DA:46,0
DA:47,0
DA:48,0
DA:49,0
DA:50,0
DA:51,0
DA:52,0
DA:53,0
DA:54,0
DA:55,0
DA:56,0
DA:58,0
DA:59,0
DA:60,0
DA:61,0
DA:62,0
DA:63,0
DA:64,0
DA:65,0
DA:66,0
DA:67,0
DA:68,0
DA:69,0
DA:70,0
DA:71,0
DA:72,0
DA:73,0
DA:74,0
DA:76,0
DA:78,0
DA:79,0
DA:80,0
DA:81,0
DA:82,0
BRF:0
BRH:0
LF:51
LH:0
end_of_record
SF:/var/www/hermes/src/nvim/parse/response/mode_response.rs
FN:6,_RNCNvNtNtNtNtCs35aDzIjzncu_6hermes4nvim5parse8response13mode_response13mode_response0Bb_
FN:5,_RNvNtNtNtNtCs35aDzIjzncu_6hermes4nvim5parse8response13mode_response13mode_response
FNDA:0,_RNCNvNtNtNtNtCs35aDzIjzncu_6hermes4nvim5parse8response13mode_response13mode_response0Bb_
FNDA:0,_RNvNtNtNtNtCs35aDzIjzncu_6hermes4nvim5parse8response13mode_response13mode_response
FNF:2
FNH:0
DA:5,0
DA:6,0
DA:7,0
DA:8,0
DA:9,0
DA:10,0
DA:11,0
BRF:0
BRH:0
LF:8
LH:0
end_of_record
SF:/var/www/hermes/src/nvim/parse/response/modes.rs
FN:4,_RNCNvNtNtNtNtCs35aDzIjzncu_6hermes4nvim5parse8response5modes11parse_modes0Bb_
FN:3,_RNvNtNtNtNtCs35aDzIjzncu_6hermes4nvim5parse8response5modes11parse_modes
FNDA:0,_RNCNvNtNtNtNtCs35aDzIjzncu_6hermes4nvim5parse8response5modes11parse_modes0Bb_
FNDA:0,_RNvNtNtNtNtCs35aDzIjzncu_6hermes4nvim5parse8response5modes11parse_modes
FNF:2
FNH:0
DA:3,0
DA:4,0
DA:5,0
DA:6,0
DA:7,0
DA:8,0
DA:9,0
DA:10,0
DA:11,0
DA:12,0
DA:13,0
BRF:0
BRH:0
LF:12
LH:0
end_of_record
SF:/var/www/hermes/src/nvim/parse/response/new_session_response.rs
FN:6,_RNvNtNtNtNtCs35aDzIjzncu_6hermes4nvim5parse8response20new_session_response20new_session_response
FNDA:0,_RNvNtNtNtNtCs35aDzIjzncu_6hermes4nvim5parse8response20new_session_response20new_session_response
FNF:1
FNH:0
DA:6,0
DA:7,0
DA:9,0
DA:11,0
DA:12,0
DA:13,0
DA:14,0
DA:15,0
DA:16,0
DA:17,0
DA:18,0
DA:19,0
DA:21,0
DA:22,0
DA:23,0
DA:24,0
DA:25,0
DA:26,0
DA:27,0
DA:28,0
DA:30,0
DA:31,0
DA:32,0
DA:34,0
DA:35,0
BRF:0
BRH:0
LF:25
LH:0
end_of_record
SF:/var/www/hermes/src/nvim/parse/response/prompt_response.rs
FN:4,_RNvNtNtNtNtCs35aDzIjzncu_6hermes4nvim5parse8response15prompt_response15prompt_response
FNDA:0,_RNvNtNtNtNtCs35aDzIjzncu_6hermes4nvim5parse8response15prompt_response15prompt_response
FNF:1
FNH:0
DA:4,0
DA:5,0
DA:7,0
DA:9,0
DA:10,0
DA:11,0
DA:13,0
DA:14,0
BRF:0
BRH:0
LF:8
LH:0
end_of_record
SF:/var/www/hermes/src/nvim/parse/response/session_forked_response.rs
FN:6,_RNvNtNtNtNtCs35aDzIjzncu_6hermes4nvim5parse8response23session_forked_response23session_forked_response
FNDA:0,_RNvNtNtNtNtCs35aDzIjzncu_6hermes4nvim5parse8response23session_forked_response23session_forked_response
FNF:1
FNH:0
DA:6,0
DA:7,0
DA:9,0
DA:11,0
DA:12,0
DA:13,0
DA:14,0
DA:15,0
DA:16,0
DA:17,0
DA:18,0
DA:19,0
DA:21,0
DA:22,0
DA:23,0
DA:24,0
DA:25,0
DA:26,0
DA:27,0
DA:28,0
DA:30,0
DA:31,0
DA:32,0
DA:34,0
DA:35,0
BRF:0
BRH:0
LF:25
LH:0
end_of_record
SF:/var/www/hermes/src/nvim/parse/response/session_loaded_response.rs
FN:6,_RNvNtNtNtNtCs35aDzIjzncu_6hermes4nvim5parse8response23session_loaded_response23session_loaded_response
FNDA:0,_RNvNtNtNtNtCs35aDzIjzncu_6hermes4nvim5parse8response23session_loaded_response23session_loaded_response
FNF:1
FNH:0
DA:6,0
DA:7,0
DA:9,0
DA:10,0
DA:11,0
DA:12,0
DA:13,0
DA:14,0
DA:15,0
DA:16,0
DA:17,0
DA:19,0
DA:20,0
DA:21,0
DA:22,0
DA:23,0
DA:24,0
DA:25,0
DA:26,0
DA:28,0
DA:29,0
DA:30,0
DA:32,0
DA:33,0
BRF:0
BRH:0
LF:24
LH:0
end_of_record
SF:/var/www/hermes/src/nvim/parse/response/session_model_response.rs
FN:4,_RNvNtNtNtNtCs35aDzIjzncu_6hermes4nvim5parse8response22session_model_response22session_model_response
FNDA:0,_RNvNtNtNtNtCs35aDzIjzncu_6hermes4nvim5parse8response22session_model_response22session_model_response
FNF:1
FNH:0
DA:4,0
DA:5,0
DA:7,0
DA:8,0
DA:9,0
DA:11,0
DA:12,0
BRF:0
BRH:0
LF:7
LH:0
end_of_record
SF:/var/www/hermes/src/nvim/parse/response/session_resumed_response.rs
FN:6,_RNvNtNtNtNtCs35aDzIjzncu_6hermes4nvim5parse8response24session_resumed_response24session_resumed_response
FNDA:0,_RNvNtNtNtNtCs35aDzIjzncu_6hermes4nvim5parse8response24session_resumed_response24session_resumed_response
FNF:1
FNH:0
DA:6,0
DA:7,0
DA:9,0
DA:10,0
DA:11,0
DA:12,0
DA:13,0
DA:14,0
DA:15,0
DA:16,0
DA:17,0
DA:19,0
DA:20,0
DA:21,0
DA:22,0
DA:23,0
DA:24,0
DA:25,0
DA:26,0
DA:28,0
DA:29,0
DA:30,0
DA:32,0
DA:33,0
BRF:0
BRH:0
LF:24
LH:0
end_of_record
SF:/var/www/hermes/src/nvim/parse/response/sessions_listed_response.rs
FN:7,_RNCNvNtNtNtNtCs35aDzIjzncu_6hermes4nvim5parse8response24sessions_listed_response24sessions_listed_response0Bb_
FN:4,_RNvNtNtNtNtCs35aDzIjzncu_6hermes4nvim5parse8response24sessions_listed_response24sessions_listed_response
FNDA:0,_RNCNvNtNtNtNtCs35aDzIjzncu_6hermes4nvim5parse8response24sessions_listed_response24sessions_listed_response0Bb_
FNDA:0,_RNvNtNtNtNtCs35aDzIjzncu_6hermes4nvim5parse8response24sessions_listed_response24sessions_listed_response
FNF:2
FNH:0
DA:4,0
DA:5,0
DA:7,0
DA:8,0
DA:9,0
DA:10,0
DA:11,0
DA:12,0
DA:13,0
DA:14,0
DA:15,0
DA:16,0
DA:17,0
DA:18,0
DA:19,0
DA:21,0
DA:22,0
DA:23,0
DA:25,0
DA:26,0
DA:27,0
DA:29,0
DA:30,0
BRF:0
BRH:0
LF:24
LH:0
end_of_record
SF:/var/www/hermes/src/nvim/requests/mod.rs
FN:74,_RNvXs_NtNtCs35aDzIjzncu_6hermes4nvim8requestsNtB4_8RequestsNtB4_14RequestHandler11get_request
FN:24,_RNvMNtNtCs35aDzIjzncu_6hermes4nvim8requestsNtB2_8Requests3new
FN:64,_RNvXs_NtNtCs35aDzIjzncu_6hermes4nvim8requestsNtB4_8RequestsNtB4_14RequestHandler11add_request
FN:93,_RNvXs_NtNtCs35aDzIjzncu_6hermes4nvim8requestsNtB4_8RequestsNtB4_14RequestHandler15handle_response
FN:50,_RNvXs_NtNtCs35aDzIjzncu_6hermes4nvim8requestsNtB4_8RequestsNtB4_14RequestHandler16default_response
FN:81,_RNvXs_NtNtCs35aDzIjzncu_6hermes4nvim8requestsNtB4_8RequestsNtB4_14RequestHandler23cancel_session_requests
FN:27,_RNCNvMNtNtCs35aDzIjzncu_6hermes4nvim8requestsNtB4_8Requests3new0B8_
FN:101,_RNCNvXs_NtNtCs35aDzIjzncu_6hermes4nvim8requestsNtB6_8RequestsNtB6_14RequestHandler15handle_response0Ba_
FN:84,_RNCNvXs_NtNtCs35aDzIjzncu_6hermes4nvim8requestsNtB6_8RequestsNtB6_14RequestHandler23cancel_session_requests0Ba_
FN:87,_RNCNvXs_NtNtCs35aDzIjzncu_6hermes4nvim8requestsNtB6_8RequestsNtB6_14RequestHandler23cancel_session_requestss_0Ba_
FNDA:0,_RNvXs_NtNtCs35aDzIjzncu_6hermes4nvim8requestsNtB4_8RequestsNtB4_14RequestHandler11get_request
FNDA:0,_RNvMNtNtCs35aDzIjzncu_6hermes4nvim8requestsNtB2_8Requests3new
FNDA:0,_RNvXs_NtNtCs35aDzIjzncu_6hermes4nvim8requestsNtB4_8RequestsNtB4_14RequestHandler11add_request
FNDA:0,_RNvXs_NtNtCs35aDzIjzncu_6hermes4nvim8requestsNtB4_8RequestsNtB4_14RequestHandler15handle_response
FNDA:0,_RNvXs_NtNtCs35aDzIjzncu_6hermes4nvim8requestsNtB4_8RequestsNtB4_14RequestHandler16default_response
FNDA:0,_RNvXs_NtNtCs35aDzIjzncu_6hermes4nvim8requestsNtB4_8RequestsNtB4_14RequestHandler23cancel_session_requests
FNDA:0,_RNCNvMNtNtCs35aDzIjzncu_6hermes4nvim8requestsNtB4_8Requests3new0B8_
FNDA:0,_RNCNvXs_NtNtCs35aDzIjzncu_6hermes4nvim8requestsNtB6_8RequestsNtB6_14RequestHandler15handle_response0Ba_
FNDA:0,_RNCNvXs_NtNtCs35aDzIjzncu_6hermes4nvim8requestsNtB6_8RequestsNtB6_14RequestHandler23cancel_session_requests0Ba_
FNDA:0,_RNCNvXs_NtNtCs35aDzIjzncu_6hermes4nvim8requestsNtB6_8RequestsNtB6_14RequestHandler23cancel_session_requestss_0Ba_
FNF:10
FNH:0
DA:24,0
DA:25,0
DA:26,0
DA:27,0
DA:28,0
DA:29,0
DA:30,0
DA:31,0
DA:32,0
DA:33,0
DA:34,0
DA:35,0
DA:36,0
DA:37,0
DA:38,0
DA:50,0
DA:51,0
DA:52,0
DA:53,0
DA:54,0
DA:55,0
DA:57,0
DA:58,0
DA:59,0
DA:60,0
DA:62,0
DA:64,0
DA:65,0
DA:66,0
DA:67,0
DA:68,0
DA:69,0
DA:70,0
DA:71,0
DA:72,0
DA:74,0
DA:75,0
DA:76,0
DA:77,0
DA:78,0
DA:79,0
DA:81,0
DA:82,0
DA:83,0
DA:84,0
DA:85,0
DA:86,0
DA:87,0
DA:88,0
DA:89,0
DA:90,0
DA:91,0
DA:93,0
DA:94,0
DA:95,0
DA:96,0
DA:98,0
DA:99,0
DA:100,0
DA:101,0
DA:102,0
DA:104,0
DA:105,0
DA:106,0
DA:107,0
DA:108,0
DA:110,0
BRF:0
BRH:0
LF:72
LH:0
end_of_record
SF:/var/www/hermes/src/nvim/requests/request.rs
FN:115,_RNvMs_NtNtNtCs35aDzIjzncu_6hermes4nvim8requests7requestNtB4_7Request8terminal
FN:411,_RINvMs_NtNtNtCs35aDzIjzncu_6hermes4nvim8requests7requestNtB5_7Request7defaultNtNtNtB9_8terminal8terminal12TerminalInfoEBb_
FN:424,_RNCINvMs_NtNtNtCs35aDzIjzncu_6hermes4nvim8requests7requestNtB7_7Request7defaultNtNtNtBb_8terminal8terminal12TerminalInfoE0Bd_
FN:465,_RNCINvMs_NtNtNtCs35aDzIjzncu_6hermes4nvim8requests7requestNtB7_7Request7defaultNtNtNtBb_8terminal8terminal12TerminalInfoEs0_0Bd_
FN:466,_RNCINvMs_NtNtNtCs35aDzIjzncu_6hermes4nvim8requests7requestNtB7_7Request7defaultNtNtNtBb_8terminal8terminal12TerminalInfoEs1_0Bd_
FN:476,_RNCINvMs_NtNtNtCs35aDzIjzncu_6hermes4nvim8requests7requestNtB7_7Request7defaultNtNtNtBb_8terminal8terminal12TerminalInfoEs2_0Bd_
FN:479,_RNCINvMs_NtNtNtCs35aDzIjzncu_6hermes4nvim8requests7requestNtB7_7Request7defaultNtNtNtBb_8terminal8terminal12TerminalInfoEs3_0Bd_
FN:480,_RNCINvMs_NtNtNtCs35aDzIjzncu_6hermes4nvim8requests7requestNtB7_7Request7defaultNtNtNtBb_8terminal8terminal12TerminalInfoEs4_0Bd_
FN:495,_RNCINvMs_NtNtNtCs35aDzIjzncu_6hermes4nvim8requests7requestNtB7_7Request7defaultNtNtNtBb_8terminal8terminal12TerminalInfoEs5_0Bd_
FN:503,_RNCINvMs_NtNtNtCs35aDzIjzncu_6hermes4nvim8requests7requestNtB7_7Request7defaultNtNtNtBb_8terminal8terminal12TerminalInfoEs6_0Bd_
FN:513,_RNCINvMs_NtNtNtCs35aDzIjzncu_6hermes4nvim8requests7requestNtB7_7Request7defaultNtNtNtBb_8terminal8terminal12TerminalInfoEs7_0Bd_
FN:514,_RNCINvMs_NtNtNtCs35aDzIjzncu_6hermes4nvim8requests7requestNtB7_7Request7defaultNtNtNtBb_8terminal8terminal12TerminalInfoEs8_0Bd_
FN:450,_RNCINvMs_NtNtNtCs35aDzIjzncu_6hermes4nvim8requests7requestNtB7_7Request7defaultNtNtNtBb_8terminal8terminal12TerminalInfoEs_0Bd_
FN:497,_RNCNCINvMs_NtNtNtCs35aDzIjzncu_6hermes4nvim8requests7requestNtB9_7Request7defaultNtNtNtBd_8terminal8terminal12TerminalInfoEs5_00Bf_
FN:355,_RNCNCNvMs_NtNtNtCs35aDzIjzncu_6hermes4nvim8requests7requestNtB8_7Request23ask_user_for_permission00Be_
FN:179,_RNCNCNvMs_NtNtNtCs35aDzIjzncu_6hermes4nvim8requests7requestNtB8_7Request30parse_terminal_output_responses_00Be_
FN:393,_RNCNCNvMs_NtNtNtCs35aDzIjzncu_6hermes4nvim8requests7requestNtB8_7Request9read_files1_00Be_
FN:139,_RNCNvMs_NtNtNtCs35aDzIjzncu_6hermes4nvim8requests7requestNtB6_7Request13get_responder0Bc_
FN:352,_RNCNvMs_NtNtNtCs35aDzIjzncu_6hermes4nvim8requests7requestNtB6_7Request23ask_user_for_permission0Bc_
FN:213,_RNCNvMs_NtNtNtCs35aDzIjzncu_6hermes4nvim8requests7requestNtB6_7Request28parse_terminal_exit_response0Bc_
FN:229,_RNCNvMs_NtNtNtCs35aDzIjzncu_6hermes4nvim8requests7requestNtB6_7Request28parse_terminal_exit_responses0_0Bc_
FN:219,_RNCNvMs_NtNtNtCs35aDzIjzncu_6hermes4nvim8requests7requestNtB6_7Request28parse_terminal_exit_responses_0Bc_
FN:169,_RNCNvMs_NtNtNtCs35aDzIjzncu_6hermes4nvim8requests7requestNtB6_7Request30parse_terminal_output_response0Bc_
FN:185,_RNCNvMs_NtNtNtCs35aDzIjzncu_6hermes4nvim8requests7requestNtB6_7Request30parse_terminal_output_responses0_0Bc_
FN:178,_RNCNvMs_NtNtNtCs35aDzIjzncu_6hermes4nvim8requests7requestNtB6_7Request30parse_terminal_output_responses_0Bc_
FN:152,_RNCNvMs_NtNtNtCs35aDzIjzncu_6hermes4nvim8requests7requestNtB6_7Request6cancel0Bc_
FN:100,_RNCNvMs_NtNtNtCs35aDzIjzncu_6hermes4nvim8requests7requestNtB6_7Request6finish0Bc_
FN:259,_RNCNvMs_NtNtNtCs35aDzIjzncu_6hermes4nvim8requests7requestNtB6_7Request7respond0Bc_
FN:270,_RNCNvMs_NtNtNtCs35aDzIjzncu_6hermes4nvim8requests7requestNtB6_7Request7responds0_0Bc_
FN:279,_RNCNvMs_NtNtNtCs35aDzIjzncu_6hermes4nvim8requests7requestNtB6_7Request7responds1_0Bc_
FN:285,_RNCNvMs_NtNtNtCs35aDzIjzncu_6hermes4nvim8requests7requestNtB6_7Request7responds2_0Bc_
FN:295,_RNCNvMs_NtNtNtCs35aDzIjzncu_6hermes4nvim8requests7requestNtB6_7Request7responds3_0Bc_
FN:296,_RNCNvMs_NtNtNtCs35aDzIjzncu_6hermes4nvim8requests7requestNtB6_7Request7responds4_0Bc_
FN:305,_RNCNvMs_NtNtNtCs35aDzIjzncu_6hermes4nvim8requests7requestNtB6_7Request7responds5_0Bc_
FN:306,_RNCNvMs_NtNtNtCs35aDzIjzncu_6hermes4nvim8requests7requestNtB6_7Request7responds6_0Bc_
FN:315,_RNCNvMs_NtNtNtCs35aDzIjzncu_6hermes4nvim8requests7requestNtB6_7Request7responds7_0Bc_
FN:325,_RNCNvMs_NtNtNtCs35aDzIjzncu_6hermes4nvim8requests7requestNtB6_7Request7responds8_0Bc_
FN:335,_RNCNvMs_NtNtNtCs35aDzIjzncu_6hermes4nvim8requests7requestNtB6_7Request7responds9_0Bc_
FN:262,_RNCNvMs_NtNtNtCs35aDzIjzncu_6hermes4nvim8requests7requestNtB6_7Request7responds_0Bc_
FN:368,_RNCNvMs_NtNtNtCs35aDzIjzncu_6hermes4nvim8requests7requestNtB6_7Request9read_file0Bc_
FN:386,_RNCNvMs_NtNtNtCs35aDzIjzncu_6hermes4nvim8requests7requestNtB6_7Request9read_files0_0Bc_
FN:390,_RNCNvMs_NtNtNtCs35aDzIjzncu_6hermes4nvim8requests7requestNtB6_7Request9read_files1_0Bc_
FN:381,_RNCNvMs_NtNtNtCs35aDzIjzncu_6hermes4nvim8requests7requestNtB6_7Request9read_files_0Bc_
FN:542,_RNvNtNtNtNtCs35aDzIjzncu_6hermes4nvim8requests7request5testss_42parse_terminal_output_accepts_empty_string
FN:535,_RNvNtNtNtNtCs35aDzIjzncu_6hermes4nvim8requests7request5testss_42parse_terminal_output_accepts_plain_string
FN:586,_RNvNtNtNtNtCs35aDzIjzncu_6hermes4nvim8requests7request5testss_49parse_terminal_output_rejects_invalid_output_type
FN:607,_RNvNtNtNtNtCs35aDzIjzncu_6hermes4nvim8requests7request5testss_50parse_terminal_exit_response_accepts_signal_string
FN:578,_RNvNtNtNtNtCs35aDzIjzncu_6hermes4nvim8requests7request5testss_50parse_terminal_output_rejects_missing_output_field
FN:747,_RNvNtNtNtNtCs35aDzIjzncu_6hermes4nvim8requests7request5testss_50responder_read_file_maps_to_read_text_file_command
FN:623,_RNvNtNtNtNtCs35aDzIjzncu_6hermes4nvim8requests7request5testss_51parse_terminal_exit_response_accepts_exit_code_zero
FN:595,_RNvNtNtNtNtCs35aDzIjzncu_6hermes4nvim8requests7request5testss_52parse_terminal_output_rejects_invalid_truncated_type
FN:769,_RNvNtNtNtNtCs35aDzIjzncu_6hermes4nvim8requests7request5testss_52responder_write_file_maps_to_write_text_file_command
FN:798,_RNvNtNtNtNtCs35aDzIjzncu_6hermes4nvim8requests7request5testss_53responder_terminal_exit_maps_to_terminal_exit_command
FN:733,_RNvNtNtNtNtCs35aDzIjzncu_6hermes4nvim8requests7request5testss_53responder_terminal_kill_maps_to_terminal_kill_command
FN:615,_RNvNtNtNtNtCs35aDzIjzncu_6hermes4nvim8requests7request5testss_54parse_terminal_exit_response_accepts_exit_code_integer
FN:761,_RNvNtNtNtNtCs35aDzIjzncu_6hermes4nvim8requests7request5testss_55responder_permission_maps_to_permission_request_command
FN:681,_RNvNtNtNtNtCs35aDzIjzncu_6hermes4nvim8requests7request5testss_56parse_terminal_exit_response_handles_empty_signal_string
FN:784,_RNvNtNtNtNtCs35aDzIjzncu_6hermes4nvim8requests7request5testss_57responder_terminal_create_maps_to_terminal_create_command
FN:719,_RNvNtNtNtNtCs35aDzIjzncu_6hermes4nvim8requests7request5testss_57responder_terminal_output_maps_to_terminal_output_command
FN:549,_RNvNtNtNtNtCs35aDzIjzncu_6hermes4nvim8requests7request5testss_58parse_terminal_output_accepts_dictionary_with_output_field
FN:671,_RNvNtNtNtNtCs35aDzIjzncu_6hermes4nvim8requests7request5testss_59parse_terminal_exit_response_accepts_dictionary_signal_only
FN:631,_RNvNtNtNtNtCs35aDzIjzncu_6hermes4nvim8requests7request5testss_59parse_terminal_exit_response_accepts_negative_signal_number
FN:708,_RNvNtNtNtNtCs35aDzIjzncu_6hermes4nvim8requests7request5testss_59parse_terminal_exit_response_handles_unknown_128_plus_range
FN:812,_RNvNtNtNtNtCs35aDzIjzncu_6hermes4nvim8requests7request5testss_59responder_terminal_release_maps_to_terminal_release_command
FN:688,_RNvNtNtNtNtCs35aDzIjzncu_6hermes4nvim8requests7request5testss_60parse_terminal_exit_response_handles_empty_dictionary_signal
FN:700,_RNvNtNtNtNtCs35aDzIjzncu_6hermes4nvim8requests7request5testss_60parse_terminal_exit_response_handles_unknown_negative_signal
FN:558,_RNvNtNtNtNtCs35aDzIjzncu_6hermes4nvim8requests7request5testss_60parse_terminal_output_accepts_dictionary_with_truncated_true
FN:639,_RNvNtNtNtNtCs35aDzIjzncu_6hermes4nvim8requests7request5testss_61parse_terminal_exit_response_accepts_exit_code_128_plus_range
FN:568,_RNvNtNtNtNtCs35aDzIjzncu_6hermes4nvim8requests7request5testss_61parse_terminal_output_accepts_dictionary_with_truncated_false
FN:661,_RNvNtNtNtNtCs35aDzIjzncu_6hermes4nvim8requests7request5testss_62parse_terminal_exit_response_accepts_dictionary_exit_code_only
FN:648,_RNvNtNtNtNtCs35aDzIjzncu_6hermes4nvim8requests7request5testss_64parse_terminal_exit_response_accepts_dictionary_with_both_fields
FN:131,_RNvMs_NtNtNtCs35aDzIjzncu_6hermes4nvim8requests7requestNtB4_7Request10is_session
FN:135,_RNvMs_NtNtNtCs35aDzIjzncu_6hermes4nvim8requests7requestNtB4_7Request13get_responder
FN:108,_RNvMs_NtNtNtCs35aDzIjzncu_6hermes4nvim8requests7requestNtB4_7Request21is_permission_request
FN:346,_RNvMs_NtNtNtCs35aDzIjzncu_6hermes4nvim8requests7requestNtB4_7Request23ask_user_for_permission
FN:195,_RNvMs_NtNtNtCs35aDzIjzncu_6hermes4nvim8requests7requestNtB4_7Request28parse_terminal_exit_response
FN:81,_RNvMs_NtNtNtCs35aDzIjzncu_6hermes4nvim8requests7requestNtB4_7Request2id
FN:162,_RNvMs_NtNtNtCs35aDzIjzncu_6hermes4nvim8requests7requestNtB4_7Request30parse_terminal_output_response
FN:84,_RNvMs_NtNtNtCs35aDzIjzncu_6hermes4nvim8requests7requestNtB4_7Request3new
FN:147,_RNvMs_NtNtNtCs35aDzIjzncu_6hermes4nvim8requests7requestNtB4_7Request6cancel
FN:99,_RNvMs_NtNtNtCs35aDzIjzncu_6hermes4nvim8requests7requestNtB4_7Request6finish
FN:255,_RNvMs_NtNtNtCs35aDzIjzncu_6hermes4nvim8requests7requestNtB4_7Request7respond
FN:364,_RNvMs_NtNtNtCs35aDzIjzncu_6hermes4nvim8requests7requestNtB4_7Request9read_file
FN:57,_RNvXNtNtNtCs35aDzIjzncu_6hermes4nvim8requests7requestNtNtB6_12autocommands8CommandsINtNtCs4kUJL3MZFFz_4core7convert4FromNtB2_9ResponderE4from
FNDA:0,_RNvMs_NtNtNtCs35aDzIjzncu_6hermes4nvim8requests7requestNtB4_7Request8terminal
FNDA:0,_RINvMs_NtNtNtCs35aDzIjzncu_6hermes4nvim8requests7requestNtB5_7Request7defaultNtNtNtB9_8terminal8terminal12TerminalInfoEBb_
FNDA:0,_RNCINvMs_NtNtNtCs35aDzIjzncu_6hermes4nvim8requests7requestNtB7_7Request7defaultNtNtNtBb_8terminal8terminal12TerminalInfoE0Bd_
FNDA:0,_RNCINvMs_NtNtNtCs35aDzIjzncu_6hermes4nvim8requests7requestNtB7_7Request7defaultNtNtNtBb_8terminal8terminal12TerminalInfoEs0_0Bd_
FNDA:0,_RNCINvMs_NtNtNtCs35aDzIjzncu_6hermes4nvim8requests7requestNtB7_7Request7defaultNtNtNtBb_8terminal8terminal12TerminalInfoEs1_0Bd_
FNDA:0,_RNCINvMs_NtNtNtCs35aDzIjzncu_6hermes4nvim8requests7requestNtB7_7Request7defaultNtNtNtBb_8terminal8terminal12TerminalInfoEs2_0Bd_
FNDA:0,_RNCINvMs_NtNtNtCs35aDzIjzncu_6hermes4nvim8requests7requestNtB7_7Request7defaultNtNtNtBb_8terminal8terminal12TerminalInfoEs3_0Bd_
FNDA:0,_RNCINvMs_NtNtNtCs35aDzIjzncu_6hermes4nvim8requests7requestNtB7_7Request7defaultNtNtNtBb_8terminal8terminal12TerminalInfoEs4_0Bd_
FNDA:0,_RNCINvMs_NtNtNtCs35aDzIjzncu_6hermes4nvim8requests7requestNtB7_7Request7defaultNtNtNtBb_8terminal8terminal12TerminalInfoEs5_0Bd_
FNDA:0,_RNCINvMs_NtNtNtCs35aDzIjzncu_6hermes4nvim8requests7requestNtB7_7Request7defaultNtNtNtBb_8terminal8terminal12TerminalInfoEs6_0Bd_
FNDA:0,_RNCINvMs_NtNtNtCs35aDzIjzncu_6hermes4nvim8requests7requestNtB7_7Request7defaultNtNtNtBb_8terminal8terminal12TerminalInfoEs7_0Bd_
FNDA:0,_RNCINvMs_NtNtNtCs35aDzIjzncu_6hermes4nvim8requests7requestNtB7_7Request7defaultNtNtNtBb_8terminal8terminal12TerminalInfoEs8_0Bd_
FNDA:0,_RNCINvMs_NtNtNtCs35aDzIjzncu_6hermes4nvim8requests7requestNtB7_7Request7defaultNtNtNtBb_8terminal8terminal12TerminalInfoEs_0Bd_
FNDA:0,_RNCNCINvMs_NtNtNtCs35aDzIjzncu_6hermes4nvim8requests7requestNtB9_7Request7defaultNtNtNtBd_8terminal8terminal12TerminalInfoEs5_00Bf_
FNDA:0,_RNCNCNvMs_NtNtNtCs35aDzIjzncu_6hermes4nvim8requests7requestNtB8_7Request23ask_user_for_permission00Be_
FNDA:1,_RNCNCNvMs_NtNtNtCs35aDzIjzncu_6hermes4nvim8requests7requestNtB8_7Request30parse_terminal_output_responses_00Be_
FNDA:0,_RNCNCNvMs_NtNtNtCs35aDzIjzncu_6hermes4nvim8requests7requestNtB8_7Request9read_files1_00Be_
FNDA:0,_RNCNvMs_NtNtNtCs35aDzIjzncu_6hermes4nvim8requests7requestNtB6_7Request13get_responder0Bc_
FNDA:0,_RNCNvMs_NtNtNtCs35aDzIjzncu_6hermes4nvim8requests7requestNtB6_7Request23ask_user_for_permission0Bc_
FNDA:0,_RNCNvMs_NtNtNtCs35aDzIjzncu_6hermes4nvim8requests7requestNtB6_7Request28parse_terminal_exit_response0Bc_
FNDA:0,_RNCNvMs_NtNtNtCs35aDzIjzncu_6hermes4nvim8requests7requestNtB6_7Request28parse_terminal_exit_responses0_0Bc_
FNDA:0,_RNCNvMs_NtNtNtCs35aDzIjzncu_6hermes4nvim8requests7requestNtB6_7Request28parse_terminal_exit_responses_0Bc_
FNDA:0,_RNCNvMs_NtNtNtCs35aDzIjzncu_6hermes4nvim8requests7requestNtB6_7Request30parse_terminal_output_response0Bc_
FNDA:1,_RNCNvMs_NtNtNtCs35aDzIjzncu_6hermes4nvim8requests7requestNtB6_7Request30parse_terminal_output_responses0_0Bc_
FNDA:5,_RNCNvMs_NtNtNtCs35aDzIjzncu_6hermes4nvim8requests7requestNtB6_7Request30parse_terminal_output_responses_0Bc_
FNDA:0,_RNCNvMs_NtNtNtCs35aDzIjzncu_6hermes4nvim8requests7requestNtB6_7Request6cancel0Bc_
FNDA:0,_RNCNvMs_NtNtNtCs35aDzIjzncu_6hermes4nvim8requests7requestNtB6_7Request6finish0Bc_
FNDA:0,_RNCNvMs_NtNtNtCs35aDzIjzncu_6hermes4nvim8requests7requestNtB6_7Request7respond0Bc_
FNDA:0,_RNCNvMs_NtNtNtCs35aDzIjzncu_6hermes4nvim8requests7requestNtB6_7Request7responds0_0Bc_
FNDA:0,_RNCNvMs_NtNtNtCs35aDzIjzncu_6hermes4nvim8requests7requestNtB6_7Request7responds1_0Bc_
FNDA:0,_RNCNvMs_NtNtNtCs35aDzIjzncu_6hermes4nvim8requests7requestNtB6_7Request7responds2_0Bc_
FNDA:0,_RNCNvMs_NtNtNtCs35aDzIjzncu_6hermes4nvim8requests7requestNtB6_7Request7responds3_0Bc_
FNDA:0,_RNCNvMs_NtNtNtCs35aDzIjzncu_6hermes4nvim8requests7requestNtB6_7Request7responds4_0Bc_
FNDA:0,_RNCNvMs_NtNtNtCs35aDzIjzncu_6hermes4nvim8requests7requestNtB6_7Request7responds5_0Bc_
FNDA:0,_RNCNvMs_NtNtNtCs35aDzIjzncu_6hermes4nvim8requests7requestNtB6_7Request7responds6_0Bc_
FNDA:0,_RNCNvMs_NtNtNtCs35aDzIjzncu_6hermes4nvim8requests7requestNtB6_7Request7responds7_0Bc_
FNDA:0,_RNCNvMs_NtNtNtCs35aDzIjzncu_6hermes4nvim8requests7requestNtB6_7Request7responds8_0Bc_
FNDA:0,_RNCNvMs_NtNtNtCs35aDzIjzncu_6hermes4nvim8requests7requestNtB6_7Request7responds9_0Bc_
FNDA:0,_RNCNvMs_NtNtNtCs35aDzIjzncu_6hermes4nvim8requests7requestNtB6_7Request7responds_0Bc_
FNDA:0,_RNCNvMs_NtNtNtCs35aDzIjzncu_6hermes4nvim8requests7requestNtB6_7Request9read_file0Bc_
FNDA:0,_RNCNvMs_NtNtNtCs35aDzIjzncu_6hermes4nvim8requests7requestNtB6_7Request9read_files0_0Bc_
FNDA:0,_RNCNvMs_NtNtNtCs35aDzIjzncu_6hermes4nvim8requests7requestNtB6_7Request9read_files1_0Bc_
FNDA:0,_RNCNvMs_NtNtNtCs35aDzIjzncu_6hermes4nvim8requests7requestNtB6_7Request9read_files_0Bc_
FNDA:1,_RNvNtNtNtNtCs35aDzIjzncu_6hermes4nvim8requests7request5testss_42parse_terminal_output_accepts_empty_string
FNDA:1,_RNvNtNtNtNtCs35aDzIjzncu_6hermes4nvim8requests7request5testss_42parse_terminal_output_accepts_plain_string
FNDA:1,_RNvNtNtNtNtCs35aDzIjzncu_6hermes4nvim8requests7request5testss_49parse_terminal_output_rejects_invalid_output_type
FNDA:1,_RNvNtNtNtNtCs35aDzIjzncu_6hermes4nvim8requests7request5testss_50parse_terminal_exit_response_accepts_signal_string
FNDA:1,_RNvNtNtNtNtCs35aDzIjzncu_6hermes4nvim8requests7request5testss_50parse_terminal_output_rejects_missing_output_field
FNDA:1,_RNvNtNtNtNtCs35aDzIjzncu_6hermes4nvim8requests7request5testss_50responder_read_file_maps_to_read_text_file_command
FNDA:1,_RNvNtNtNtNtCs35aDzIjzncu_6hermes4nvim8requests7request5testss_51parse_terminal_exit_response_accepts_exit_code_zero
FNDA:1,_RNvNtNtNtNtCs35aDzIjzncu_6hermes4nvim8requests7request5testss_52parse_terminal_output_rejects_invalid_truncated_type
FNDA:1,_RNvNtNtNtNtCs35aDzIjzncu_6hermes4nvim8requests7request5testss_52responder_write_file_maps_to_write_text_file_command
FNDA:1,_RNvNtNtNtNtCs35aDzIjzncu_6hermes4nvim8requests7request5testss_53responder_terminal_exit_maps_to_terminal_exit_command
FNDA:1,_RNvNtNtNtNtCs35aDzIjzncu_6hermes4nvim8requests7request5testss_53responder_terminal_kill_maps_to_terminal_kill_command
FNDA:1,_RNvNtNtNtNtCs35aDzIjzncu_6hermes4nvim8requests7request5testss_54parse_terminal_exit_response_accepts_exit_code_integer
FNDA:1,_RNvNtNtNtNtCs35aDzIjzncu_6hermes4nvim8requests7request5testss_55responder_permission_maps_to_permission_request_command
FNDA:1,_RNvNtNtNtNtCs35aDzIjzncu_6hermes4nvim8requests7request5testss_56parse_terminal_exit_response_handles_empty_signal_string
FNDA:1,_RNvNtNtNtNtCs35aDzIjzncu_6hermes4nvim8requests7request5testss_57responder_terminal_create_maps_to_terminal_create_command
FNDA:1,_RNvNtNtNtNtCs35aDzIjzncu_6hermes4nvim8requests7request5testss_57responder_terminal_output_maps_to_terminal_output_command
FNDA:1,_RNvNtNtNtNtCs35aDzIjzncu_6hermes4nvim8requests7request5testss_58parse_terminal_output_accepts_dictionary_with_output_field
FNDA:1,_RNvNtNtNtNtCs35aDzIjzncu_6hermes4nvim8requests7request5testss_59parse_terminal_exit_response_accepts_dictionary_signal_only
FNDA:1,_RNvNtNtNtNtCs35aDzIjzncu_6hermes4nvim8requests7request5testss_59parse_terminal_exit_response_accepts_negative_signal_number
FNDA:1,_RNvNtNtNtNtCs35aDzIjzncu_6hermes4nvim8requests7request5testss_59parse_terminal_exit_response_handles_unknown_128_plus_range
FNDA:1,_RNvNtNtNtNtCs35aDzIjzncu_6hermes4nvim8requests7request5testss_59responder_terminal_release_maps_to_terminal_release_command
FNDA:1,_RNvNtNtNtNtCs35aDzIjzncu_6hermes4nvim8requests7request5testss_60parse_terminal_exit_response_handles_empty_dictionary_signal
FNDA:1,_RNvNtNtNtNtCs35aDzIjzncu_6hermes4nvim8requests7request5testss_60parse_terminal_exit_response_handles_unknown_negative_signal
FNDA:1,_RNvNtNtNtNtCs35aDzIjzncu_6hermes4nvim8requests7request5testss_60parse_terminal_output_accepts_dictionary_with_truncated_true
FNDA:1,_RNvNtNtNtNtCs35aDzIjzncu_6hermes4nvim8requests7request5testss_61parse_terminal_exit_response_accepts_exit_code_128_plus_range
FNDA:1,_RNvNtNtNtNtCs35aDzIjzncu_6hermes4nvim8requests7request5testss_61parse_terminal_output_accepts_dictionary_with_truncated_false
FNDA:1,_RNvNtNtNtNtCs35aDzIjzncu_6hermes4nvim8requests7request5testss_62parse_terminal_exit_response_accepts_dictionary_exit_code_only
FNDA:1,_RNvNtNtNtNtCs35aDzIjzncu_6hermes4nvim8requests7request5testss_64parse_terminal_exit_response_accepts_dictionary_with_both_fields
FNDA:0,_RNvMs_NtNtNtCs35aDzIjzncu_6hermes4nvim8requests7requestNtB4_7Request10is_session
FNDA:0,_RNvMs_NtNtNtCs35aDzIjzncu_6hermes4nvim8requests7requestNtB4_7Request13get_responder
FNDA:0,_RNvMs_NtNtNtCs35aDzIjzncu_6hermes4nvim8requests7requestNtB4_7Request21is_permission_request
FNDA:0,_RNvMs_NtNtNtCs35aDzIjzncu_6hermes4nvim8requests7requestNtB4_7Request23ask_user_for_permission
FNDA:12,_RNvMs_NtNtNtCs35aDzIjzncu_6hermes4nvim8requests7requestNtB4_7Request28parse_terminal_exit_response
FNDA:0,_RNvMs_NtNtNtCs35aDzIjzncu_6hermes4nvim8requests7requestNtB4_7Request2id
FNDA:8,_RNvMs_NtNtNtCs35aDzIjzncu_6hermes4nvim8requests7requestNtB4_7Request30parse_terminal_output_response
FNDA:0,_RNvMs_NtNtNtCs35aDzIjzncu_6hermes4nvim8requests7requestNtB4_7Request3new
FNDA:0,_RNvMs_NtNtNtCs35aDzIjzncu_6hermes4nvim8requests7requestNtB4_7Request6cancel
FNDA:0,_RNvMs_NtNtNtCs35aDzIjzncu_6hermes4nvim8requests7requestNtB4_7Request6finish
FNDA:0,_RNvMs_NtNtNtCs35aDzIjzncu_6hermes4nvim8requests7requestNtB4_7Request7respond
FNDA:0,_RNvMs_NtNtNtCs35aDzIjzncu_6hermes4nvim8requests7requestNtB4_7Request9read_file
FNDA:8,_RNvXNtNtNtCs35aDzIjzncu_6hermes4nvim8requests7requestNtNtB6_12autocommands8CommandsINtNtCs4kUJL3MZFFz_4core7convert4FromNtB2_9ResponderE4from
FNF:84
FNH:34
DA:57,8
DA:58,8
DA:59,1
DA:60,1
DA:61,1
DA:62,1
DA:63,1
DA:64,1
DA:65,1
DA:66,1
DA:68,8
DA:81,0
DA:82,0
DA:83,0
DA:84,0
DA:85,0
DA:86,0
DA:87,0
DA:88,0
DA:89,0
DA:90,0
DA:91,0
DA:92,0
DA:93,0
DA:94,0
DA:95,0
DA:96,0
DA:97,0
DA:99,0
DA:100,0
DA:101,0
DA:102,0
DA:103,0
DA:104,0
DA:105,0
DA:106,0
DA:108,0
DA:109,0
DA:110,0
DA:111,0
DA:112,0
DA:113,0
DA:115,0
DA:116,0
DA:117,0
DA:118,0
DA:127,0
DA:128,0
DA:129,0
DA:131,0
DA:132,0
DA:133,0
DA:135,0
DA:136,0
DA:137,0
DA:138,0
DA:139,0
DA:140,0
DA:141,0
DA:142,0
DA:143,0
DA:144,0
DA:145,0
DA:147,0
DA:148,0
DA:149,0
DA:150,0
DA:151,0
DA:152,0
DA:153,0
DA:154,0
DA:155,0
DA:156,0
DA:157,0
DA:158,0
DA:159,0
DA:160,0
DA:162,8
DA:164,8
DA:165,2
DA:168,6
DA:169,6
DA:172,6
DA:173,6
DA:174,6
DA:175,6
DA:176,6
DA:177,6
DA:178,6
DA:179,5
DA:180,5
DA:183,4
DA:184,3
DA:185,3
DA:187,1
DA:190,3
DA:193,8
DA:195,12
DA:196,12
DA:197,12
DA:199,12
DA:200,2
DA:201,1
DA:202,1
DA:203,1
DA:205,1
DA:209,10
DA:210,6
DA:212,4
DA:213,4
DA:216,4
DA:217,3
DA:218,3
DA:219,3
DA:220,3
DA:222,1
DA:226,4
DA:227,3
DA:228,3
DA:229,3
DA:230,3
DA:232,1
DA:235,4
DA:236,0
DA:237,0
DA:238,0
DA:239,4
DA:240,3
DA:241,3
DA:242,1
DA:243,2
DA:245,3
DA:247,1
DA:253,12
DA:255,0
DA:256,0
DA:257,0
DA:258,0
DA:259,0
DA:260,0
DA:261,0
DA:262,0
DA:263,0
DA:264,0
DA:265,0
DA:266,0
DA:267,0
DA:269,0
DA:270,0
DA:271,0
DA:272,0
DA:273,0
DA:274,0
DA:275,0
DA:277,0
DA:278,0
DA:279,0
DA:280,0
DA:281,0
DA:283,0
DA:285,0
DA:286,0
DA:287,0
DA:288,0
DA:289,0
DA:290,0
DA:292,0
DA:293,0
DA:294,0
DA:295,0
DA:296,0
DA:297,0
DA:298,0
DA:299,0
DA:300,0
DA:301,0
DA:303,0
DA:304,0
DA:305,0
DA:306,0
DA:307,0
DA:308,0
DA:309,0
DA:310,0
DA:311,0
DA:313,0
DA:314,0
DA:315,0
DA:316,0
DA:317,0
DA:318,0
DA:319,0
DA:320,0
DA:322,0
DA:323,0
DA:324,0
DA:325,0
DA:326,0
DA:327,0
DA:328,0
DA:329,0
DA:330,0
DA:332,0
DA:333,0
DA:334,0
DA:335,0
DA:336,0
DA:337,0
DA:338,0
DA:339,0
DA:340,0
DA:343,0
DA:344,0
DA:346,0
DA:347,0
DA:348,0
DA:349,0
DA:350,0
DA:351,0
DA:352,0
DA:353,0
DA:354,0
DA:355,0
DA:356,0
DA:360,0
DA:361,0
DA:362,0
DA:364,0
DA:365,0
DA:366,0
DA:368,0
DA:369,0
DA:370,0
DA:372,0
DA:374,0
DA:375,0
DA:376,0
DA:378,0
DA:379,0
DA:380,0
DA:381,0
DA:382,0
DA:383,0
DA:384,0
DA:385,0
DA:386,0
DA:387,0
DA:388,0
DA:389,0
DA:390,0
DA:392,0
DA:393,0
DA:394,0
DA:395,0
DA:396,0
DA:397,0
DA:398,0
DA:399,0
DA:400,0
DA:402,0
DA:403,0
DA:404,0
DA:405,0
DA:406,0
DA:408,0
DA:411,0
DA:412,0
DA:413,0
DA:414,0
DA:415,0
DA:416,0
DA:417,0
DA:419,0
DA:421,0
DA:423,0
DA:424,0
DA:425,0
DA:426,0
DA:427,0
DA:428,0
DA:429,0
DA:431,0
DA:432,0
DA:433,0
DA:434,0
DA:435,0
DA:436,0
DA:438,0
DA:440,0
DA:441,0
DA:442,0
DA:443,0
DA:444,0
DA:445,0
DA:447,0
DA:450,0
DA:451,0
DA:452,0
DA:453,0
DA:454,0
DA:456,0
DA:457,0
DA:458,0
DA:459,0
DA:460,0
DA:461,0
DA:462,0
DA:463,0
DA:464,0
DA:465,0
DA:466,0
DA:467,0
DA:468,0
DA:469,0
DA:470,0
DA:471,0
DA:473,0
DA:474,0
DA:475,0
DA:476,0
DA:477,0
DA:478,0
DA:479,0
DA:480,0
DA:481,0
DA:482,0
DA:483,0
DA:484,0
DA:486,0
DA:487,0
DA:489,0
DA:490,0
DA:491,0
DA:492,0
DA:493,0
DA:494,0
DA:495,0
DA:496,0
DA:497,0
DA:499,0
DA:501,0
DA:503,0
DA:504,0
DA:505,0
DA:506,0
DA:507,0
DA:508,0
DA:510,0
DA:511,0
DA:512,0
DA:513,0
DA:514,0
DA:515,0
DA:516,0
DA:517,0
DA:518,0
DA:519,0
DA:522,0
DA:524,0
DA:525,0
DA:535,1
DA:536,1
DA:537,1
DA:538,1
DA:539,1
DA:542,1
DA:543,1
DA:544,1
DA:545,1
DA:546,1
DA:549,1
DA:550,1
DA:551,1
DA:552,1
DA:553,1
DA:554,1
DA:555,1
DA:558,1
DA:559,1
DA:560,1
DA:561,1
DA:562,1
DA:563,1
DA:564,1
DA:565,1
DA:568,1
DA:569,1
DA:570,1
DA:571,1
DA:572,1
DA:573,1
DA:574,1
DA:575,1
DA:578,1
DA:579,1
DA:580,1
DA:581,1
DA:582,1
DA:583,1
DA:586,1
DA:587,1
DA:588,1
DA:589,1
DA:590,1
DA:591,1
DA:592,1
DA:595,1
DA:596,1
DA:597,1
DA:598,1
DA:599,1
DA:600,1
DA:601,1
DA:602,1
DA:607,1
DA:608,1
DA:609,1
DA:610,1
DA:611,1
DA:612,1
DA:615,1
DA:616,1
DA:617,1
DA:618,1
DA:619,1
DA:620,1
DA:623,1
DA:624,1
DA:625,1
DA:626,1
DA:627,1
DA:628,1
DA:631,1
DA:632,1
DA:633,1
DA:634,1
DA:635,1
DA:636,1
DA:639,1
DA:641,1
DA:642,1
DA:643,1
DA:644,1
DA:645,1
DA:648,1
DA:649,1
DA:650,1
DA:651,1
DA:652,1
DA:653,1
DA:654,1
DA:657,1
DA:658,1
DA:661,1
DA:662,1
DA:663,1
DA:664,1
DA:665,1
DA:666,1
DA:667,1
DA:668,1
DA:671,1
DA:672,1
DA:673,1
DA:674,1
DA:675,1
DA:676,1
DA:677,1
DA:678,1
DA:681,1
DA:682,1
DA:683,1
DA:684,1
DA:685,1
DA:688,1
DA:689,1
DA:690,1
DA:691,1
DA:692,1
DA:693,1
DA:694,1
DA:696,1
DA:697,1
DA:700,1
DA:701,1
DA:702,1
DA:703,1
DA:704,1
DA:705,1
DA:708,1
DA:711,1
DA:712,1
DA:713,1
DA:714,1
DA:715,1
DA:719,1
DA:720,1
DA:721,1
DA:722,1
DA:723,1
DA:724,1
DA:725,1
DA:726,1
DA:727,1
DA:728,1
DA:729,1
DA:730,1
DA:733,1
DA:734,1
DA:735,1
DA:736,1
DA:737,1
DA:738,1
DA:739,1
DA:740,1
DA:741,1
DA:742,1
DA:743,1
DA:744,1
DA:747,1
DA:748,1
DA:749,1
DA:750,1
DA:751,1
DA:752,1
DA:753,1
DA:754,1
DA:755,1
DA:756,1
DA:757,1
DA:758,1
DA:761,1
DA:762,1
DA:763,1
DA:764,1
DA:765,1
DA:766,1
DA:769,1
DA:770,1
DA:771,1
DA:772,1
DA:773,1
DA:774,1
DA:775,1
DA:776,1
DA:777,1
DA:778,1
DA:779,1
DA:780,1
DA:781,1
DA:784,1
DA:785,1
DA:786,1
DA:787,1
DA:788,1
DA:789,1
DA:790,1
DA:791,1
DA:792,1
DA:793,1
DA:794,1
DA:795,1
DA:798,1
DA:799,1
DA:800,1
DA:801,1
DA:802,1
DA:803,1
DA:804,1
DA:805,1
DA:806,1
DA:807,1
DA:808,1
DA:809,1
DA:812,1
DA:813,1
DA:814,1
DA:815,1
DA:816,1
DA:817,1
DA:818,1
DA:819,1
DA:820,1
DA:821,1
DA:822,1
DA:823,1
BRF:0
BRH:0
LF:643
LH:295
end_of_record
SF:/var/www/hermes/src/nvim/state.rs
FN:44,_RNvXs_NtNtCs35aDzIjzncu_6hermes4nvim5stateNtB4_11PluginStateNtNtCs4kUJL3MZFFz_4core7default7Default7default
FN:20,_RNvMNtNtCs35aDzIjzncu_6hermes4nvim5stateNtB2_11PluginState11with_config
FN:36,_RNvMNtNtCs35aDzIjzncu_6hermes4nvim5stateNtB2_11PluginState14set_agent_info
FN:15,_RNvMNtNtCs35aDzIjzncu_6hermes4nvim5stateNtB2_11PluginState3new
FN:29,_RNvMNtNtCs35aDzIjzncu_6hermes4nvim5stateNtB2_11PluginState9set_agent
FNDA:0,_RNvXs_NtNtCs35aDzIjzncu_6hermes4nvim5stateNtB4_11PluginStateNtNtCs4kUJL3MZFFz_4core7default7Default7default
FNDA:0,_RNvMNtNtCs35aDzIjzncu_6hermes4nvim5stateNtB2_11PluginState11with_config
FNDA:0,_RNvMNtNtCs35aDzIjzncu_6hermes4nvim5stateNtB2_11PluginState14set_agent_info
FNDA:0,_RNvMNtNtCs35aDzIjzncu_6hermes4nvim5stateNtB2_11PluginState3new
FNDA:0,_RNvMNtNtCs35aDzIjzncu_6hermes4nvim5stateNtB2_11PluginState9set_agent
FNF:5
FNH:0
DA:15,0
DA:16,0
DA:17,0
DA:20,0
DA:21,0
DA:22,0
DA:23,0
DA:24,0
DA:25,0
DA:26,0
DA:29,0
DA:30,0
DA:31,0
DA:32,0
DA:33,0
DA:36,0
DA:37,0
DA:38,0
DA:39,0
DA:40,0
DA:44,0
DA:45,0
DA:46,0
BRF:0
BRH:0
LF:23
LH:0
end_of_record
SF:/var/www/hermes/src/nvim/terminal/manager.rs
FN:155,_RNvXs_NtNtNtNtCs35aDzIjzncu_6hermes4nvim8terminal7manager5testsNtB4_12MockTerminalNtNtB8_8terminal8Terminal12from_request
FN:122,_RNvXs_NtNtNtNtCs35aDzIjzncu_6hermes4nvim8terminal7manager5testsNtB4_12MockTerminalNtNtB8_8terminal8Terminal2id
FN:151,_RNvXs_NtNtNtNtCs35aDzIjzncu_6hermes4nvim8terminal7manager5testsNtB4_12MockTerminalNtNtB8_8terminal8Terminal3run
FN:163,_RNvXs_NtNtNtNtCs35aDzIjzncu_6hermes4nvim8terminal7manager5testsNtB4_12MockTerminalNtNtB8_8terminal8Terminal6buffer
FN:159,_RNvXs_NtNtNtNtCs35aDzIjzncu_6hermes4nvim8terminal7manager5testsNtB4_12MockTerminalNtNtB8_8terminal8Terminal6delete
FN:126,_RNvXs_NtNtNtNtCs35aDzIjzncu_6hermes4nvim8terminal7manager5testsNtB4_12MockTerminalNtNtB8_8terminal8Terminal9configure
FN:130,_RNvXs_NtNtNtNtCs35aDzIjzncu_6hermes4nvim8terminal7manager5testsNtB4_12MockTerminalNtNtB8_8terminal8Terminal9truncated
FN:113,_RNCNvMNtNtNtNtCs35aDzIjzncu_6hermes4nvim8terminal7manager5testsNtB4_12MockTerminal3new0Bc_
FN:33,_RNCNvMNtNtNtCs35aDzIjzncu_6hermes4nvim8terminal7managerINtB4_15TerminalManagerNtNtB4_5tests12MockTerminalE10get_output0Ba_
FN:72,_RNCNvMNtNtNtCs35aDzIjzncu_6hermes4nvim8terminal7managerINtB4_15TerminalManagerNtNtB4_5tests12MockTerminalE7release0Ba_
FN:72,_RNCNvMNtNtNtCs35aDzIjzncu_6hermes4nvim8terminal7managerINtB4_15TerminalManagerNtNtB6_8terminal12TerminalInfoE7release0Ba_
FN:32,_RNvMNtNtNtCs35aDzIjzncu_6hermes4nvim8terminal7managerINtB2_15TerminalManagerNtNtB2_5tests12MockTerminalE10get_outputB8_
FN:28,_RNvMNtNtNtCs35aDzIjzncu_6hermes4nvim8terminal7managerINtB2_15TerminalManagerNtNtB2_5tests12MockTerminalE12get_terminalB8_
FN:24,_RNvMNtNtNtCs35aDzIjzncu_6hermes4nvim8terminal7managerINtB2_15TerminalManagerNtNtB2_5tests12MockTerminalE19initialize_terminalB8_
FN:36,_RNvMNtNtNtCs35aDzIjzncu_6hermes4nvim8terminal7managerINtB2_15TerminalManagerNtNtB2_5tests12MockTerminalE20notify_when_finishedB8_
FN:18,_RNvMNtNtNtCs35aDzIjzncu_6hermes4nvim8terminal7managerINtB2_15TerminalManagerNtNtB2_5tests12MockTerminalE3newB8_
FN:68,_RNvMNtNtNtCs35aDzIjzncu_6hermes4nvim8terminal7managerINtB2_15TerminalManagerNtNtB2_5tests12MockTerminalE7releaseB8_
FN:28,_RNvMNtNtNtCs35aDzIjzncu_6hermes4nvim8terminal7managerINtB2_15TerminalManagerNtNtB4_8terminal12TerminalInfoE12get_terminalB8_
FN:24,_RNvMNtNtNtCs35aDzIjzncu_6hermes4nvim8terminal7managerINtB2_15TerminalManagerNtNtB4_8terminal12TerminalInfoE19initialize_terminalB8_
FN:36,_RNvMNtNtNtCs35aDzIjzncu_6hermes4nvim8terminal7managerINtB2_15TerminalManagerNtNtB4_8terminal12TerminalInfoE20notify_when_finishedB8_
FN:18,_RNvMNtNtNtCs35aDzIjzncu_6hermes4nvim8terminal7managerINtB2_15TerminalManagerNtNtB4_8terminal12TerminalInfoE3newB8_
FN:53,_RNvMNtNtNtCs35aDzIjzncu_6hermes4nvim8terminal7managerINtB2_15TerminalManagerNtNtB4_8terminal12TerminalInfoE4killB8_
FN:68,_RNvMNtNtNtCs35aDzIjzncu_6hermes4nvim8terminal7managerINtB2_15TerminalManagerNtNtB4_8terminal12TerminalInfoE7releaseB8_
FN:88,_RNvXs_NtNtNtCs35aDzIjzncu_6hermes4nvim8terminal7managerINtB4_15TerminalManagerNtNtB4_5tests12MockTerminalENtNtCs4kUJL3MZFFz_4core7default7Default7defaultBa_
FN:111,_RNvMNtNtNtNtCs35aDzIjzncu_6hermes4nvim8terminal7manager5testsNtB2_12MockTerminal3new
FN:169,_RNvNtNtNtNtCs35aDzIjzncu_6hermes4nvim8terminal7manager5testss_42terminal_manager_new_creates_empty_manager
FN:257,_RNvNtNtNtNtCs35aDzIjzncu_6hermes4nvim8terminal7manager5testss_46terminal_manager_default_creates_empty_manager
FN:175,_RNvNtNtNtNtCs35aDzIjzncu_6hermes4nvim8terminal7manager5testss_50terminal_manager_initialize_terminal_adds_terminal
FN:250,_RNvNtNtNtNtCs35aDzIjzncu_6hermes4nvim8terminal7manager5testss_51terminal_manager_release_fails_for_missing_terminal
FN:194,_RNvNtNtNtNtCs35aDzIjzncu_6hermes4nvim8terminal7manager5testss_52terminal_manager_get_output_returns_terminal_content
FN:234,_RNvNtNtNtNtCs35aDzIjzncu_6hermes4nvim8terminal7manager5testss_52terminal_manager_release_removes_and_closes_terminal
FN:211,_RNvNtNtNtNtCs35aDzIjzncu_6hermes4nvim8terminal7manager5testss_54terminal_manager_notify_when_finished_registers_sender
FN:187,_RNvNtNtNtNtCs35aDzIjzncu_6hermes4nvim8terminal7manager5testss_57terminal_manager_get_terminal_returns_none_for_missing_id
FN:204,_RNvNtNtNtNtCs35aDzIjzncu_6hermes4nvim8terminal7manager5testss_61terminal_manager_get_output_returns_none_for_missing_terminal
FN:226,_RNvNtNtNtNtCs35aDzIjzncu_6hermes4nvim8terminal7manager5testss_64terminal_manager_notify_when_finished_fails_for_missing_terminal
FN:138,_RNvXs_NtNtNtNtCs35aDzIjzncu_6hermes4nvim8terminal7manager5testsNtB4_12MockTerminalNtNtB8_8terminal8Terminal14report_exit_to
FN:146,_RNvXs_NtNtNtNtCs35aDzIjzncu_6hermes4nvim8terminal7manager5testsNtB4_12MockTerminalNtNtB8_8terminal8Terminal4stop
FN:134,_RNvXs_NtNtNtNtCs35aDzIjzncu_6hermes4nvim8terminal7manager5testsNtB4_12MockTerminalNtNtB8_8terminal8Terminal7content
FNDA:0,_RNvXs_NtNtNtNtCs35aDzIjzncu_6hermes4nvim8terminal7manager5testsNtB4_12MockTerminalNtNtB8_8terminal8Terminal12from_request
FNDA:0,_RNvXs_NtNtNtNtCs35aDzIjzncu_6hermes4nvim8terminal7manager5testsNtB4_12MockTerminalNtNtB8_8terminal8Terminal2id
FNDA:0,_RNvXs_NtNtNtNtCs35aDzIjzncu_6hermes4nvim8terminal7manager5testsNtB4_12MockTerminalNtNtB8_8terminal8Terminal3run
FNDA:0,_RNvXs_NtNtNtNtCs35aDzIjzncu_6hermes4nvim8terminal7manager5testsNtB4_12MockTerminalNtNtB8_8terminal8Terminal6buffer
FNDA:0,_RNvXs_NtNtNtNtCs35aDzIjzncu_6hermes4nvim8terminal7manager5testsNtB4_12MockTerminalNtNtB8_8terminal8Terminal6delete
FNDA:0,_RNvXs_NtNtNtNtCs35aDzIjzncu_6hermes4nvim8terminal7manager5testsNtB4_12MockTerminalNtNtB8_8terminal8Terminal9configure
FNDA:0,_RNvXs_NtNtNtNtCs35aDzIjzncu_6hermes4nvim8terminal7manager5testsNtB4_12MockTerminalNtNtB8_8terminal8Terminal9truncated
FNDA:3,_RNCNvMNtNtNtNtCs35aDzIjzncu_6hermes4nvim8terminal7manager5testsNtB4_12MockTerminal3new0Bc_
FNDA:1,_RNCNvMNtNtNtCs35aDzIjzncu_6hermes4nvim8terminal7managerINtB4_15TerminalManagerNtNtB4_5tests12MockTerminalE10get_output0Ba_
FNDA:0,_RNCNvMNtNtNtCs35aDzIjzncu_6hermes4nvim8terminal7managerINtB4_15TerminalManagerNtNtB4_5tests12MockTerminalE7release0Ba_
FNDA:0,_RNCNvMNtNtNtCs35aDzIjzncu_6hermes4nvim8terminal7managerINtB4_15TerminalManagerNtNtB6_8terminal12TerminalInfoE7release0Ba_
FNDA:2,_RNvMNtNtNtCs35aDzIjzncu_6hermes4nvim8terminal7managerINtB2_15TerminalManagerNtNtB2_5tests12MockTerminalE10get_outputB8_
FNDA:5,_RNvMNtNtNtCs35aDzIjzncu_6hermes4nvim8terminal7managerINtB2_15TerminalManagerNtNtB2_5tests12MockTerminalE12get_terminalB8_
FNDA:4,_RNvMNtNtNtCs35aDzIjzncu_6hermes4nvim8terminal7managerINtB2_15TerminalManagerNtNtB2_5tests12MockTerminalE19initialize_terminalB8_
FNDA:2,_RNvMNtNtNtCs35aDzIjzncu_6hermes4nvim8terminal7managerINtB2_15TerminalManagerNtNtB2_5tests12MockTerminalE20notify_when_finishedB8_
FNDA:10,_RNvMNtNtNtCs35aDzIjzncu_6hermes4nvim8terminal7managerINtB2_15TerminalManagerNtNtB2_5tests12MockTerminalE3newB8_
FNDA:2,_RNvMNtNtNtCs35aDzIjzncu_6hermes4nvim8terminal7managerINtB2_15TerminalManagerNtNtB2_5tests12MockTerminalE7releaseB8_
FNDA:0,_RNvMNtNtNtCs35aDzIjzncu_6hermes4nvim8terminal7managerINtB2_15TerminalManagerNtNtB4_8terminal12TerminalInfoE12get_terminalB8_
FNDA:0,_RNvMNtNtNtCs35aDzIjzncu_6hermes4nvim8terminal7managerINtB2_15TerminalManagerNtNtB4_8terminal12TerminalInfoE19initialize_terminalB8_
FNDA:0,_RNvMNtNtNtCs35aDzIjzncu_6hermes4nvim8terminal7managerINtB2_15TerminalManagerNtNtB4_8terminal12TerminalInfoE20notify_when_finishedB8_
FNDA:0,_RNvMNtNtNtCs35aDzIjzncu_6hermes4nvim8terminal7managerINtB2_15TerminalManagerNtNtB4_8terminal12TerminalInfoE3newB8_
FNDA:0,_RNvMNtNtNtCs35aDzIjzncu_6hermes4nvim8terminal7managerINtB2_15TerminalManagerNtNtB4_8terminal12TerminalInfoE4killB8_
FNDA:0,_RNvMNtNtNtCs35aDzIjzncu_6hermes4nvim8terminal7managerINtB2_15TerminalManagerNtNtB4_8terminal12TerminalInfoE7releaseB8_
FNDA:10,_RNvXs_NtNtNtCs35aDzIjzncu_6hermes4nvim8terminal7managerINtB4_15TerminalManagerNtNtB4_5tests12MockTerminalENtNtCs4kUJL3MZFFz_4core7default7Default7defaultBa_
FNDA:4,_RNvMNtNtNtNtCs35aDzIjzncu_6hermes4nvim8terminal7manager5testsNtB2_12MockTerminal3new
FNDA:1,_RNvNtNtNtNtCs35aDzIjzncu_6hermes4nvim8terminal7manager5testss_42terminal_manager_new_creates_empty_manager
FNDA:1,_RNvNtNtNtNtCs35aDzIjzncu_6hermes4nvim8terminal7manager5testss_46terminal_manager_default_creates_empty_manager
FNDA:1,_RNvNtNtNtNtCs35aDzIjzncu_6hermes4nvim8terminal7manager5testss_50terminal_manager_initialize_terminal_adds_terminal
FNDA:1,_RNvNtNtNtNtCs35aDzIjzncu_6hermes4nvim8terminal7manager5testss_51terminal_manager_release_fails_for_missing_terminal
FNDA:1,_RNvNtNtNtNtCs35aDzIjzncu_6hermes4nvim8terminal7manager5testss_52terminal_manager_get_output_returns_terminal_content
FNDA:1,_RNvNtNtNtNtCs35aDzIjzncu_6hermes4nvim8terminal7manager5testss_52terminal_manager_release_removes_and_closes_terminal
FNDA:1,_RNvNtNtNtNtCs35aDzIjzncu_6hermes4nvim8terminal7manager5testss_54terminal_manager_notify_when_finished_registers_sender
FNDA:1,_RNvNtNtNtNtCs35aDzIjzncu_6hermes4nvim8terminal7manager5testss_57terminal_manager_get_terminal_returns_none_for_missing_id
FNDA:1,_RNvNtNtNtNtCs35aDzIjzncu_6hermes4nvim8terminal7manager5testss_61terminal_manager_get_output_returns_none_for_missing_terminal
FNDA:1,_RNvNtNtNtNtCs35aDzIjzncu_6hermes4nvim8terminal7manager5testss_64terminal_manager_notify_when_finished_fails_for_missing_terminal
FNDA:1,_RNvXs_NtNtNtNtCs35aDzIjzncu_6hermes4nvim8terminal7manager5testsNtB4_12MockTerminalNtNtB8_8terminal8Terminal14report_exit_to
FNDA:1,_RNvXs_NtNtNtNtCs35aDzIjzncu_6hermes4nvim8terminal7manager5testsNtB4_12MockTerminalNtNtB8_8terminal8Terminal4stop
FNDA:1,_RNvXs_NtNtNtNtCs35aDzIjzncu_6hermes4nvim8terminal7manager5testsNtB4_12MockTerminalNtNtB8_8terminal8Terminal7content
FNF:32
FNH:23
DA:18,10
DA:19,10
DA:20,10
DA:21,10
DA:22,10
DA:24,4
DA:25,4
DA:26,4
DA:28,5
DA:29,5
DA:30,5
DA:32,2
DA:33,2
DA:34,2
DA:36,2
DA:37,2
DA:38,2
DA:39,2
DA:40,2
DA:41,2
DA:42,2
DA:43,2
DA:44,1
DA:46,1
DA:47,1
DA:48,1
DA:49,1
DA:51,2
DA:53,0
DA:54,0
DA:55,0
DA:56,0
DA:57,0
DA:59,0
DA:60,0
DA:61,0
DA:62,0
DA:64,0
DA:65,0
DA:66,0
DA:68,2
DA:69,2
DA:70,2
DA:71,2
DA:72,2
DA:73,2
DA:74,2
DA:75,2
DA:76,1
DA:77,1
DA:79,1
DA:80,1
DA:81,1
DA:82,1
DA:84,2
DA:88,10
DA:89,10
DA:90,10
DA:111,4
DA:113,4
DA:114,4
DA:115,4
DA:116,4
DA:118,4
DA:122,0
DA:123,0
DA:124,0
DA:126,0
DA:127,0
DA:128,0
DA:130,0
DA:131,0
DA:132,0
DA:134,1
DA:135,1
DA:136,1
DA:138,1
DA:139,1
DA:140,1
DA:141,1
DA:142,1
DA:143,1
DA:144,1
DA:146,1
DA:147,1
DA:148,1
DA:149,1
DA:151,0
DA:152,0
DA:153,0
DA:155,0
DA:156,0
DA:157,0
DA:159,0
DA:160,0
DA:161,0
DA:163,0
DA:164,0
DA:165,0
DA:169,1
DA:170,1
DA:171,1
DA:172,1
DA:175,1
DA:176,1
DA:177,1
DA:178,1
DA:179,1
DA:181,1
DA:182,1
DA:183,1
DA:184,1
DA:187,1
DA:188,1
DA:189,1
DA:190,1
DA:191,1
DA:194,1
DA:195,1
DA:196,1
DA:197,1
DA:199,1
DA:200,1
DA:201,1
DA:204,1
DA:205,1
DA:206,1
DA:207,1
DA:208,1
DA:211,1
DA:212,1
DA:213,1
DA:214,1
DA:216,1
DA:217,1
DA:218,1
DA:221,1
DA:222,1
DA:223,1
DA:226,1
DA:227,1
DA:228,1
DA:229,1
DA:230,1
DA:231,1
DA:234,1
DA:235,1
DA:236,1
DA:237,1
DA:239,1
DA:240,1
DA:243,1
DA:246,1
DA:247,1
DA:250,1
DA:251,1
DA:252,1
DA:253,1
DA:254,1
DA:257,1
DA:258,1
DA:259,1
DA:260,1
BRF:0
BRH:0
LF:166
LH:132
end_of_record
SF:/var/www/hermes/src/nvim/terminal/signal.rs
FN:137,_RNCNvNtNtNtNtCs35aDzIjzncu_6hermes4nvim8terminal6signal5testss_38map_codes_handles_all_standard_signals0Bb_
FN:41,_RNvNtNtNtCs35aDzIjzncu_6hermes4nvim8terminal6signal15parse_exit_code
FN:1,_RNvNtNtNtCs35aDzIjzncu_6hermes4nvim8terminal6signal9map_codes
FN:91,_RNvNtNtNtNtCs35aDzIjzncu_6hermes4nvim8terminal6signal5testss_33map_codes_returns_none_for_code_0
FN:96,_RNvNtNtNtNtCs35aDzIjzncu_6hermes4nvim8terminal6signal5testss_34map_codes_returns_none_for_code_32
FN:220,_RNvNtNtNtNtCs35aDzIjzncu_6hermes4nvim8terminal6signal5testss_34parse_exit_code_handles_negative_1
FN:81,_RNvNtNtNtNtCs35aDzIjzncu_6hermes4nvim8terminal6signal5testss_35map_codes_returns_sigint_for_code_2
FN:76,_RNvNtNtNtNtCs35aDzIjzncu_6hermes4nvim8terminal6signal5testss_36map_codes_returns_sigkill_for_code_9
FN:71,_RNvNtNtNtNtCs35aDzIjzncu_6hermes4nvim8terminal6signal5testss_37map_codes_returns_sigterm_for_code_15
FN:226,_RNvNtNtNtNtCs35aDzIjzncu_6hermes4nvim8terminal6signal5testss_37parse_exit_code_handles_exit_code_128
FN:101,_RNvNtNtNtNtCs35aDzIjzncu_6hermes4nvim8terminal6signal5testss_38map_codes_handles_all_standard_signals
FN:86,_RNvNtNtNtNtCs35aDzIjzncu_6hermes4nvim8terminal6signal5testss_39map_codes_returns_none_for_unknown_code
FN:232,_RNvNtNtNtNtCs35aDzIjzncu_6hermes4nvim8terminal6signal5testss_45parse_exit_code_handles_large_negative_number
FN:175,_RNvNtNtNtNtCs35aDzIjzncu_6hermes4nvim8terminal6signal5testss_52parse_exit_code_returns_exit_code_and_signal_for_130
FN:150,_RNvNtNtNtNtCs35aDzIjzncu_6hermes4nvim8terminal6signal5testss_58parse_exit_code_returns_exit_code_and_none_for_exit_code_0
FN:155,_RNvNtNtNtNtCs35aDzIjzncu_6hermes4nvim8terminal6signal5testss_58parse_exit_code_returns_exit_code_and_none_for_exit_code_1
FN:144,_RNvNtNtNtNtCs35aDzIjzncu_6hermes4nvim8terminal6signal5testss_58parse_exit_code_returns_exit_code_and_none_for_normal_exit
FN:160,_RNvNtNtNtNtCs35aDzIjzncu_6hermes4nvim8terminal6signal5testss_60parse_exit_code_returns_exit_code_and_none_for_exit_code_127
FN:196,_RNvNtNtNtNtCs35aDzIjzncu_6hermes4nvim8terminal6signal5testss_60parse_exit_code_returns_none_and_signal_for_negative_sigkill
FN:190,_RNvNtNtNtNtCs35aDzIjzncu_6hermes4nvim8terminal6signal5testss_60parse_exit_code_returns_none_and_signal_for_negative_sigterm
FN:211,_RNvNtNtNtNtCs35aDzIjzncu_6hermes4nvim8terminal6signal5testss_61parse_exit_code_returns_none_and_unknown_for_too_large_number
FN:166,_RNvNtNtNtNtCs35aDzIjzncu_6hermes4nvim8terminal6signal5testss_63parse_exit_code_returns_exit_code_and_signal_for_128_plus_range
FN:202,_RNvNtNtNtNtCs35aDzIjzncu_6hermes4nvim8terminal6signal5testss_68parse_exit_code_returns_none_and_unknown_for_negative_unknown_signal
FN:184,_RNvNtNtNtNtCs35aDzIjzncu_6hermes4nvim8terminal6signal5testss_74parse_exit_code_returns_exit_code_and_none_for_unknown_signal_in_128_range
FNDA:31,_RNCNvNtNtNtNtCs35aDzIjzncu_6hermes4nvim8terminal6signal5testss_38map_codes_handles_all_standard_signals0Bb_
FNDA:31,_RNvNtNtNtCs35aDzIjzncu_6hermes4nvim8terminal6signal15parse_exit_code
FNDA:55,_RNvNtNtNtCs35aDzIjzncu_6hermes4nvim8terminal6signal9map_codes
FNDA:1,_RNvNtNtNtNtCs35aDzIjzncu_6hermes4nvim8terminal6signal5testss_33map_codes_returns_none_for_code_0
FNDA:1,_RNvNtNtNtNtCs35aDzIjzncu_6hermes4nvim8terminal6signal5testss_34map_codes_returns_none_for_code_32
FNDA:1,_RNvNtNtNtNtCs35aDzIjzncu_6hermes4nvim8terminal6signal5testss_34parse_exit_code_handles_negative_1
FNDA:1,_RNvNtNtNtNtCs35aDzIjzncu_6hermes4nvim8terminal6signal5testss_35map_codes_returns_sigint_for_code_2
FNDA:1,_RNvNtNtNtNtCs35aDzIjzncu_6hermes4nvim8terminal6signal5testss_36map_codes_returns_sigkill_for_code_9
FNDA:1,_RNvNtNtNtNtCs35aDzIjzncu_6hermes4nvim8terminal6signal5testss_37map_codes_returns_sigterm_for_code_15
FNDA:1,_RNvNtNtNtNtCs35aDzIjzncu_6hermes4nvim8terminal6signal5testss_37parse_exit_code_handles_exit_code_128
FNDA:1,_RNvNtNtNtNtCs35aDzIjzncu_6hermes4nvim8terminal6signal5testss_38map_codes_handles_all_standard_signals
FNDA:1,_RNvNtNtNtNtCs35aDzIjzncu_6hermes4nvim8terminal6signal5testss_39map_codes_returns_none_for_unknown_code
FNDA:1,_RNvNtNtNtNtCs35aDzIjzncu_6hermes4nvim8terminal6signal5testss_45parse_exit_code_handles_large_negative_number
FNDA:1,_RNvNtNtNtNtCs35aDzIjzncu_6hermes4nvim8terminal6signal5testss_52parse_exit_code_returns_exit_code_and_signal_for_130
FNDA:1,_RNvNtNtNtNtCs35aDzIjzncu_6hermes4nvim8terminal6signal5testss_58parse_exit_code_returns_exit_code_and_none_for_exit_code_0
FNDA:1,_RNvNtNtNtNtCs35aDzIjzncu_6hermes4nvim8terminal6signal5testss_58parse_exit_code_returns_exit_code_and_none_for_exit_code_1
FNDA:1,_RNvNtNtNtNtCs35aDzIjzncu_6hermes4nvim8terminal6signal5testss_58parse_exit_code_returns_exit_code_and_none_for_normal_exit
FNDA:1,_RNvNtNtNtNtCs35aDzIjzncu_6hermes4nvim8terminal6signal5testss_60parse_exit_code_returns_exit_code_and_none_for_exit_code_127
FNDA:1,_RNvNtNtNtNtCs35aDzIjzncu_6hermes4nvim8terminal6signal5testss_60parse_exit_code_returns_none_and_signal_for_negative_sigkill
FNDA:1,_RNvNtNtNtNtCs35aDzIjzncu_6hermes4nvim8terminal6signal5testss_60parse_exit_code_returns_none_and_signal_for_negative_sigterm
FNDA:1,_RNvNtNtNtNtCs35aDzIjzncu_6hermes4nvim8terminal6signal5testss_61parse_exit_code_returns_none_and_unknown_for_too_large_number
FNDA:1,_RNvNtNtNtNtCs35aDzIjzncu_6hermes4nvim8terminal6signal5testss_63parse_exit_code_returns_exit_code_and_signal_for_128_plus_range
FNDA:1,_RNvNtNtNtNtCs35aDzIjzncu_6hermes4nvim8terminal6signal5testss_68parse_exit_code_returns_none_and_unknown_for_negative_unknown_signal
FNDA:1,_RNvNtNtNtNtCs35aDzIjzncu_6hermes4nvim8terminal6signal5testss_74parse_exit_code_returns_exit_code_and_none_for_unknown_signal_in_128_range
FNF:24
FNH:24
DA:1,55
DA:3,55
DA:4,2
DA:5,4
DA:6,1
DA:7,1
DA:8,1
DA:9,1
DA:10,1
DA:11,1
DA:12,8
DA:13,1
DA:14,1
DA:15,1
DA:16,1
DA:17,1
DA:18,4
DA:19,1
DA:20,1
DA:21,1
DA:22,1
DA:23,1
DA:24,1
DA:25,1
DA:26,1
DA:27,1
DA:28,1
DA:29,1
DA:30,1
DA:31,1
DA:32,1
DA:33,1
DA:34,1
DA:35,10
DA:37,45
DA:39,55
DA:41,31
DA:42,31
DA:43,31
DA:45,11
DA:47,20
DA:49,20
DA:51,19
DA:52,7
DA:55,12
DA:59,1
DA:62,31
DA:71,1
DA:72,1
DA:73,1
DA:76,1
DA:77,1
DA:78,1
DA:81,1
DA:82,1
DA:83,1
DA:86,1
DA:87,1
DA:88,1
DA:91,1
DA:92,1
DA:93,1
DA:96,1
DA:97,1
DA:98,1
DA:101,1
DA:103,1
DA:104,1
DA:105,1
DA:106,1
DA:107,1
DA:108,1
DA:109,1
DA:110,1
DA:111,1
DA:112,1
DA:113,1
DA:114,1
DA:115,1
DA:116,1
DA:117,1
DA:118,1
DA:119,1
DA:120,1
DA:121,1
DA:122,1
DA:123,1
DA:124,1
DA:125,1
DA:126,1
DA:127,1
DA:128,1
DA:129,1
DA:130,1
DA:131,1
DA:132,1
DA:133,1
DA:134,1
DA:137,31
DA:138,1
DA:139,1
DA:144,1
DA:146,1
DA:147,1
DA:150,1
DA:151,1
DA:152,1
DA:155,1
DA:156,1
DA:157,1
DA:160,1
DA:162,1
DA:163,1
DA:166,1
DA:168,1
DA:169,1
DA:170,1
DA:172,1
DA:175,1
DA:177,1
DA:178,1
DA:179,1
DA:181,1
DA:184,1
DA:186,1
DA:187,1
DA:190,1
DA:192,1
DA:193,1
DA:196,1
DA:198,1
DA:199,1
DA:202,1
DA:204,1
DA:205,1
DA:206,1
DA:208,1
DA:211,1
DA:213,1
DA:214,1
DA:215,1
DA:217,1
DA:220,1
DA:222,1
DA:223,1
DA:226,1
DA:228,1
DA:229,1
DA:232,1
DA:234,1
DA:235,1
DA:236,1
DA:238,1
BRF:0
BRH:0
LF:154
LH:154
end_of_record
SF:/var/www/hermes/src/nvim/terminal/terminal.rs
FN:329,_RNvXs0_NtNtNtCs35aDzIjzncu_6hermes4nvim8terminal8terminalNtB5_12TerminalInfoNtB5_8Terminal6buffer
FN:201,_RINvMs_NtNtNtCs35aDzIjzncu_6hermes4nvim8terminal8terminalNtB5_12TerminalInfo10set_optionReEBb_
FN:201,_RINvMs_NtNtNtCs35aDzIjzncu_6hermes4nvim8terminal8terminalNtB5_12TerminalInfo10set_optionbEBb_
FN:201,_RINvMs_NtNtNtCs35aDzIjzncu_6hermes4nvim8terminal8terminalNtB5_12TerminalInfo10set_optionlEBb_
FN:206,_RNCINvMs_NtNtNtCs35aDzIjzncu_6hermes4nvim8terminal8terminalNtB7_12TerminalInfo10set_optionReE0Bd_
FN:206,_RNCINvMs_NtNtNtCs35aDzIjzncu_6hermes4nvim8terminal8terminalNtB7_12TerminalInfo10set_optionbE0Bd_
FN:206,_RNCINvMs_NtNtNtCs35aDzIjzncu_6hermes4nvim8terminal8terminalNtB7_12TerminalInfo10set_optionlE0Bd_
FN:137,_RNCNCNvMs_NtNtNtCs35aDzIjzncu_6hermes4nvim8terminal8terminalNtB8_12TerminalInfo20create_exit_callback00Be_
FN:140,_RNCNCNvMs_NtNtNtCs35aDzIjzncu_6hermes4nvim8terminal8terminalNtB8_12TerminalInfo20create_exit_callback0s_0Be_
FN:120,_RNCNCNvMs_NtNtNtCs35aDzIjzncu_6hermes4nvim8terminal8terminalNtB8_12TerminalInfo21create_input_callback00Be_
FN:123,_RNCNCNvMs_NtNtNtCs35aDzIjzncu_6hermes4nvim8terminal8terminalNtB8_12TerminalInfo21create_input_callback0s_0Be_
FN:166,_RNCNvMs_NtNtNtCs35aDzIjzncu_6hermes4nvim8terminal8terminalNtB6_12TerminalInfo11environment0Bc_
FN:195,_RNCNvMs_NtNtNtCs35aDzIjzncu_6hermes4nvim8terminal8terminalNtB6_12TerminalInfo14start_terminal0Bc_
FN:135,_RNCNvMs_NtNtNtCs35aDzIjzncu_6hermes4nvim8terminal8terminalNtB6_12TerminalInfo20create_exit_callback0Bc_
FN:118,_RNCNvMs_NtNtNtCs35aDzIjzncu_6hermes4nvim8terminal8terminalNtB6_12TerminalInfo21create_input_callback0Bc_
FN:78,_RNCNvNtNtNtCs35aDzIjzncu_6hermes4nvim8terminal8terminal20handle_terminal_exit0B9_
FN:264,_RNCNvXs0_NtNtNtCs35aDzIjzncu_6hermes4nvim8terminal8terminalNtB7_12TerminalInfoNtB7_8Terminal14report_exit_to0Bd_
FN:277,_RNCNvXs0_NtNtNtCs35aDzIjzncu_6hermes4nvim8terminal8terminalNtB7_12TerminalInfoNtB7_8Terminal14report_exit_tos0_0Bd_
FN:266,_RNCNvXs0_NtNtNtCs35aDzIjzncu_6hermes4nvim8terminal8terminalNtB7_12TerminalInfoNtB7_8Terminal14report_exit_tos_0Bd_
FN:285,_RNCNvXs0_NtNtNtCs35aDzIjzncu_6hermes4nvim8terminal8terminalNtB7_12TerminalInfoNtB7_8Terminal3run0Bd_
FN:289,_RNCNvXs0_NtNtNtCs35aDzIjzncu_6hermes4nvim8terminal8terminalNtB7_12TerminalInfoNtB7_8Terminal3runs0_0Bd_
FN:288,_RNCNvXs0_NtNtNtCs35aDzIjzncu_6hermes4nvim8terminal8terminalNtB7_12TerminalInfoNtB7_8Terminal3runs_0Bd_
FN:310,_RNCNvXs0_NtNtNtCs35aDzIjzncu_6hermes4nvim8terminal8terminalNtB7_12TerminalInfoNtB7_8Terminal4stop0Bd_
FN:323,_RNCNvXs0_NtNtNtCs35aDzIjzncu_6hermes4nvim8terminal8terminalNtB7_12TerminalInfoNtB7_8Terminal6delete0Bd_
FN:357,_RNvNtNtNtNtCs35aDzIjzncu_6hermes4nvim8terminal8terminal5testss_31process_input_strips_ansi_codes
FN:627,_RNvNtNtNtNtCs35aDzIjzncu_6hermes4nvim8terminal8terminal5testss_37handle_exit_maps_sigint_negative_code
FN:611,_RNvNtNtNtNtCs35aDzIjzncu_6hermes4nvim8terminal8terminal5testss_38handle_exit_maps_sigkill_negative_code
FN:342,_RNvNtNtNtNtCs35aDzIjzncu_6hermes4nvim8terminal8terminal5testss_39process_input_joins_lines_with_newlines
FN:557,_RNvNtNtNtNtCs35aDzIjzncu_6hermes4nvim8terminal8terminal5testss_40handle_exit_stores_status_when_no_sender
FN:496,_RNvNtNtNtNtCs35aDzIjzncu_6hermes4nvim8terminal8terminal5testss_40process_input_handles_emoji_only_content
FN:470,_RNvNtNtNtNtCs35aDzIjzncu_6hermes4nvim8terminal8terminal5testss_41process_input_handles_exact_char_boundary
FN:373,_RNvNtNtNtNtCs35aDzIjzncu_6hermes4nvim8terminal8terminal5testss_44process_input_truncates_when_over_byte_limit
FN:419,_RNvNtNtNtNtCs35aDzIjzncu_6hermes4nvim8terminal8terminal5testss_45process_input_does_not_truncate_when_no_limit
FN:431,_RNvNtNtNtNtCs35aDzIjzncu_6hermes4nvim8terminal8terminal5testss_45process_input_truncates_multibyte_utf8_safely
FN:659,_RNvNtNtNtNtCs35aDzIjzncu_6hermes4nvim8terminal8terminal5testss_46handle_exit_maps_exit_code_zero_to_normal_exit
FN:643,_RNvNtNtNtNtCs35aDzIjzncu_6hermes4nvim8terminal8terminal5testss_47handle_exit_maps_unknown_signal_to_generic_name
FN:403,_RNvNtNtNtNtCs35aDzIjzncu_6hermes4nvim8terminal8terminal5testss_48process_input_does_not_truncate_when_under_limit
FN:388,_RNvNtNtNtNtCs35aDzIjzncu_6hermes4nvim8terminal8terminal5testss_49process_input_sets_truncated_flag_when_over_limit
FN:592,_RNvNtNtNtNtCs35aDzIjzncu_6hermes4nvim8terminal8terminal5testss_51handle_exit_maps_exit_code_128_plus_range_to_signal
FN:535,_RNvNtNtNtNtCs35aDzIjzncu_6hermes4nvim8terminal8terminal5testss_51handle_exit_sends_immediately_when_sender_available
FN:575,_RNvNtNtNtNtCs35aDzIjzncu_6hermes4nvim8terminal8terminal5testss_52handle_exit_maps_negative_signal_code_to_signal_name
FN:458,_RNvNtNtNtNtCs35aDzIjzncu_6hermes4nvim8terminal8terminal5testss_53process_input_truncates_multibyte_utf8_respects_limit
FN:522,_RNvNtNtNtNtCs35aDzIjzncu_6hermes4nvim8terminal8terminal5testss_55process_input_handles_emoji_only_content_respects_limit
FN:447,_RNvNtNtNtNtCs35aDzIjzncu_6hermes4nvim8terminal8terminal5testss_58process_input_truncates_multibyte_utf8_sets_truncated_flag
FN:511,_RNvNtNtNtNtCs35aDzIjzncu_6hermes4nvim8terminal8terminal5testss_60process_input_handles_emoji_only_content_sets_truncated_flag
FN:485,_RNvNtNtNtNtCs35aDzIjzncu_6hermes4nvim8terminal8terminal5testss_61process_input_handles_exact_char_boundary_sets_truncated_flag
FN:165,_RNvMs_NtNtNtCs35aDzIjzncu_6hermes4nvim8terminal8terminalNtB4_12TerminalInfo11environment
FN:171,_RNvMs_NtNtNtCs35aDzIjzncu_6hermes4nvim8terminal8terminalNtB4_12TerminalInfo14start_terminal
FN:159,_RNvMs_NtNtNtCs35aDzIjzncu_6hermes4nvim8terminal8terminalNtB4_12TerminalInfo17working_directory
FN:131,_RNvMs_NtNtNtCs35aDzIjzncu_6hermes4nvim8terminal8terminalNtB4_12TerminalInfo20create_exit_callback
FN:155,_RNvMs_NtNtNtCs35aDzIjzncu_6hermes4nvim8terminal8terminalNtB4_12TerminalInfo20set_on_exit_callback
FN:113,_RNvMs_NtNtNtCs35aDzIjzncu_6hermes4nvim8terminal8terminalNtB4_12TerminalInfo21create_input_callback
FN:150,_RNvMs_NtNtNtCs35aDzIjzncu_6hermes4nvim8terminal8terminalNtB4_12TerminalInfo22set_on_output_callback
FN:88,_RNvMs_NtNtNtCs35aDzIjzncu_6hermes4nvim8terminal8terminalNtB4_12TerminalInfo3new
FN:69,_RNvNtNtNtCs35aDzIjzncu_6hermes4nvim8terminal8terminal20handle_terminal_exit
FN:45,_RNvNtNtNtCs35aDzIjzncu_6hermes4nvim8terminal8terminal22process_terminal_input
FN:30,_RNvXNtNtNtCs35aDzIjzncu_6hermes4nvim8terminal8terminalNtB2_12TerminalInfoINtNtCs4kUJL3MZFFz_4core7convert4FromNtNtCs4yJtZWcHHPS_28agent_client_protocol_schema6client21CreateTerminalRequestE4from
FN:239,_RNvXs0_NtNtNtCs35aDzIjzncu_6hermes4nvim8terminal8terminalNtB5_12TerminalInfoNtB5_8Terminal12from_request
FN:260,_RNvXs0_NtNtNtCs35aDzIjzncu_6hermes4nvim8terminal8terminalNtB5_12TerminalInfoNtB5_8Terminal14report_exit_to
FN:243,_RNvXs0_NtNtNtCs35aDzIjzncu_6hermes4nvim8terminal8terminalNtB5_12TerminalInfoNtB5_8Terminal2id
FN:283,_RNvXs0_NtNtNtCs35aDzIjzncu_6hermes4nvim8terminal8terminalNtB5_12TerminalInfoNtB5_8Terminal3run
FN:307,_RNvXs0_NtNtNtCs35aDzIjzncu_6hermes4nvim8terminal8terminalNtB5_12TerminalInfoNtB5_8Terminal4stop
FN:318,_RNvXs0_NtNtNtCs35aDzIjzncu_6hermes4nvim8terminal8terminalNtB5_12TerminalInfoNtB5_8Terminal6delete
FN:303,_RNvXs0_NtNtNtCs35aDzIjzncu_6hermes4nvim8terminal8terminalNtB5_12TerminalInfoNtB5_8Terminal7content
FN:251,_RNvXs0_NtNtNtCs35aDzIjzncu_6hermes4nvim8terminal8terminalNtB5_12TerminalInfoNtB5_8Terminal9configure
FN:247,_RNvXs0_NtNtNtCs35aDzIjzncu_6hermes4nvim8terminal8terminalNtB5_12TerminalInfoNtB5_8Terminal9truncated
FNDA:0,_RNvXs0_NtNtNtCs35aDzIjzncu_6hermes4nvim8terminal8terminalNtB5_12TerminalInfoNtB5_8Terminal6buffer
FNDA:0,_RINvMs_NtNtNtCs35aDzIjzncu_6hermes4nvim8terminal8terminalNtB5_12TerminalInfo10set_optionReEBb_
FNDA:0,_RINvMs_NtNtNtCs35aDzIjzncu_6hermes4nvim8terminal8terminalNtB5_12TerminalInfo10set_optionbEBb_
FNDA:0,_RINvMs_NtNtNtCs35aDzIjzncu_6hermes4nvim8terminal8terminalNtB5_12TerminalInfo10set_optionlEBb_
FNDA:0,_RNCINvMs_NtNtNtCs35aDzIjzncu_6hermes4nvim8terminal8terminalNtB7_12TerminalInfo10set_optionReE0Bd_
FNDA:0,_RNCINvMs_NtNtNtCs35aDzIjzncu_6hermes4nvim8terminal8terminalNtB7_12TerminalInfo10set_optionbE0Bd_
FNDA:0,_RNCINvMs_NtNtNtCs35aDzIjzncu_6hermes4nvim8terminal8terminalNtB7_12TerminalInfo10set_optionlE0Bd_
FNDA:0,_RNCNCNvMs_NtNtNtCs35aDzIjzncu_6hermes4nvim8terminal8terminalNtB8_12TerminalInfo20create_exit_callback00Be_
FNDA:0,_RNCNCNvMs_NtNtNtCs35aDzIjzncu_6hermes4nvim8terminal8terminalNtB8_12TerminalInfo20create_exit_callback0s_0Be_
FNDA:0,_RNCNCNvMs_NtNtNtCs35aDzIjzncu_6hermes4nvim8terminal8terminalNtB8_12TerminalInfo21create_input_callback00Be_
FNDA:0,_RNCNCNvMs_NtNtNtCs35aDzIjzncu_6hermes4nvim8terminal8terminalNtB8_12TerminalInfo21create_input_callback0s_0Be_
FNDA:0,_RNCNvMs_NtNtNtCs35aDzIjzncu_6hermes4nvim8terminal8terminalNtB6_12TerminalInfo11environment0Bc_
FNDA:0,_RNCNvMs_NtNtNtCs35aDzIjzncu_6hermes4nvim8terminal8terminalNtB6_12TerminalInfo14start_terminal0Bc_
FNDA:0,_RNCNvMs_NtNtNtCs35aDzIjzncu_6hermes4nvim8terminal8terminalNtB6_12TerminalInfo20create_exit_callback0Bc_
FNDA:0,_RNCNvMs_NtNtNtCs35aDzIjzncu_6hermes4nvim8terminal8terminalNtB6_12TerminalInfo21create_input_callback0Bc_
FNDA:0,_RNCNvNtNtNtCs35aDzIjzncu_6hermes4nvim8terminal8terminal20handle_terminal_exit0B9_
FNDA:0,_RNCNvXs0_NtNtNtCs35aDzIjzncu_6hermes4nvim8terminal8terminalNtB7_12TerminalInfoNtB7_8Terminal14report_exit_to0Bd_
FNDA:0,_RNCNvXs0_NtNtNtCs35aDzIjzncu_6hermes4nvim8terminal8terminalNtB7_12TerminalInfoNtB7_8Terminal14report_exit_tos0_0Bd_
FNDA:0,_RNCNvXs0_NtNtNtCs35aDzIjzncu_6hermes4nvim8terminal8terminalNtB7_12TerminalInfoNtB7_8Terminal14report_exit_tos_0Bd_
FNDA:0,_RNCNvXs0_NtNtNtCs35aDzIjzncu_6hermes4nvim8terminal8terminalNtB7_12TerminalInfoNtB7_8Terminal3run0Bd_
FNDA:0,_RNCNvXs0_NtNtNtCs35aDzIjzncu_6hermes4nvim8terminal8terminalNtB7_12TerminalInfoNtB7_8Terminal3runs0_0Bd_
FNDA:0,_RNCNvXs0_NtNtNtCs35aDzIjzncu_6hermes4nvim8terminal8terminalNtB7_12TerminalInfoNtB7_8Terminal3runs_0Bd_
FNDA:0,_RNCNvXs0_NtNtNtCs35aDzIjzncu_6hermes4nvim8terminal8terminalNtB7_12TerminalInfoNtB7_8Terminal4stop0Bd_
FNDA:0,_RNCNvXs0_NtNtNtCs35aDzIjzncu_6hermes4nvim8terminal8terminalNtB7_12TerminalInfoNtB7_8Terminal6delete0Bd_
FNDA:1,_RNvNtNtNtNtCs35aDzIjzncu_6hermes4nvim8terminal8terminal5testss_31process_input_strips_ansi_codes
FNDA:1,_RNvNtNtNtNtCs35aDzIjzncu_6hermes4nvim8terminal8terminal5testss_37handle_exit_maps_sigint_negative_code
FNDA:1,_RNvNtNtNtNtCs35aDzIjzncu_6hermes4nvim8terminal8terminal5testss_38handle_exit_maps_sigkill_negative_code
FNDA:1,_RNvNtNtNtNtCs35aDzIjzncu_6hermes4nvim8terminal8terminal5testss_39process_input_joins_lines_with_newlines
FNDA:1,_RNvNtNtNtNtCs35aDzIjzncu_6hermes4nvim8terminal8terminal5testss_40handle_exit_stores_status_when_no_sender
FNDA:1,_RNvNtNtNtNtCs35aDzIjzncu_6hermes4nvim8terminal8terminal5testss_40process_input_handles_emoji_only_content
FNDA:1,_RNvNtNtNtNtCs35aDzIjzncu_6hermes4nvim8terminal8terminal5testss_41process_input_handles_exact_char_boundary
FNDA:1,_RNvNtNtNtNtCs35aDzIjzncu_6hermes4nvim8terminal8terminal5testss_44process_input_truncates_when_over_byte_limit
FNDA:1,_RNvNtNtNtNtCs35aDzIjzncu_6hermes4nvim8terminal8terminal5testss_45process_input_does_not_truncate_when_no_limit
FNDA:1,_RNvNtNtNtNtCs35aDzIjzncu_6hermes4nvim8terminal8terminal5testss_45process_input_truncates_multibyte_utf8_safely
FNDA:1,_RNvNtNtNtNtCs35aDzIjzncu_6hermes4nvim8terminal8terminal5testss_46handle_exit_maps_exit_code_zero_to_normal_exit
FNDA:1,_RNvNtNtNtNtCs35aDzIjzncu_6hermes4nvim8terminal8terminal5testss_47handle_exit_maps_unknown_signal_to_generic_name
FNDA:1,_RNvNtNtNtNtCs35aDzIjzncu_6hermes4nvim8terminal8terminal5testss_48process_input_does_not_truncate_when_under_limit
FNDA:1,_RNvNtNtNtNtCs35aDzIjzncu_6hermes4nvim8terminal8terminal5testss_49process_input_sets_truncated_flag_when_over_limit
FNDA:1,_RNvNtNtNtNtCs35aDzIjzncu_6hermes4nvim8terminal8terminal5testss_51handle_exit_maps_exit_code_128_plus_range_to_signal
FNDA:1,_RNvNtNtNtNtCs35aDzIjzncu_6hermes4nvim8terminal8terminal5testss_51handle_exit_sends_immediately_when_sender_available
FNDA:1,_RNvNtNtNtNtCs35aDzIjzncu_6hermes4nvim8terminal8terminal5testss_52handle_exit_maps_negative_signal_code_to_signal_name
FNDA:1,_RNvNtNtNtNtCs35aDzIjzncu_6hermes4nvim8terminal8terminal5testss_53process_input_truncates_multibyte_utf8_respects_limit
FNDA:1,_RNvNtNtNtNtCs35aDzIjzncu_6hermes4nvim8terminal8terminal5testss_55process_input_handles_emoji_only_content_respects_limit
FNDA:1,_RNvNtNtNtNtCs35aDzIjzncu_6hermes4nvim8terminal8terminal5testss_58process_input_truncates_multibyte_utf8_sets_truncated_flag
FNDA:1,_RNvNtNtNtNtCs35aDzIjzncu_6hermes4nvim8terminal8terminal5testss_60process_input_handles_emoji_only_content_sets_truncated_flag
FNDA:1,_RNvNtNtNtNtCs35aDzIjzncu_6hermes4nvim8terminal8terminal5testss_61process_input_handles_exact_char_boundary_sets_truncated_flag
FNDA:0,_RNvMs_NtNtNtCs35aDzIjzncu_6hermes4nvim8terminal8terminalNtB4_12TerminalInfo11environment
FNDA:0,_RNvMs_NtNtNtCs35aDzIjzncu_6hermes4nvim8terminal8terminalNtB4_12TerminalInfo14start_terminal
FNDA:0,_RNvMs_NtNtNtCs35aDzIjzncu_6hermes4nvim8terminal8terminalNtB4_12TerminalInfo17working_directory
FNDA:0,_RNvMs_NtNtNtCs35aDzIjzncu_6hermes4nvim8terminal8terminalNtB4_12TerminalInfo20create_exit_callback
FNDA:0,_RNvMs_NtNtNtCs35aDzIjzncu_6hermes4nvim8terminal8terminalNtB4_12TerminalInfo20set_on_exit_callback
FNDA:0,_RNvMs_NtNtNtCs35aDzIjzncu_6hermes4nvim8terminal8terminalNtB4_12TerminalInfo21create_input_callback
FNDA:0,_RNvMs_NtNtNtCs35aDzIjzncu_6hermes4nvim8terminal8terminalNtB4_12TerminalInfo22set_on_output_callback
FNDA:0,_RNvMs_NtNtNtCs35aDzIjzncu_6hermes4nvim8terminal8terminalNtB4_12TerminalInfo3new
FNDA:8,_RNvNtNtNtCs35aDzIjzncu_6hermes4nvim8terminal8terminal20handle_terminal_exit
FNDA:14,_RNvNtNtNtCs35aDzIjzncu_6hermes4nvim8terminal8terminal22process_terminal_input
FNDA:0,_RNvXNtNtNtCs35aDzIjzncu_6hermes4nvim8terminal8terminalNtB2_12TerminalInfoINtNtCs4kUJL3MZFFz_4core7convert4FromNtNtCs4yJtZWcHHPS_28agent_client_protocol_schema6client21CreateTerminalRequestE4from
FNDA:0,_RNvXs0_NtNtNtCs35aDzIjzncu_6hermes4nvim8terminal8terminalNtB5_12TerminalInfoNtB5_8Terminal12from_request
FNDA:0,_RNvXs0_NtNtNtCs35aDzIjzncu_6hermes4nvim8terminal8terminalNtB5_12TerminalInfoNtB5_8Terminal14report_exit_to
FNDA:0,_RNvXs0_NtNtNtCs35aDzIjzncu_6hermes4nvim8terminal8terminalNtB5_12TerminalInfoNtB5_8Terminal2id
FNDA:0,_RNvXs0_NtNtNtCs35aDzIjzncu_6hermes4nvim8terminal8terminalNtB5_12TerminalInfoNtB5_8Terminal3run
FNDA:0,_RNvXs0_NtNtNtCs35aDzIjzncu_6hermes4nvim8terminal8terminalNtB5_12TerminalInfoNtB5_8Terminal4stop
FNDA:0,_RNvXs0_NtNtNtCs35aDzIjzncu_6hermes4nvim8terminal8terminalNtB5_12TerminalInfoNtB5_8Terminal6delete
FNDA:0,_RNvXs0_NtNtNtCs35aDzIjzncu_6hermes4nvim8terminal8terminalNtB5_12TerminalInfoNtB5_8Terminal7content
FNDA:0,_RNvXs0_NtNtNtCs35aDzIjzncu_6hermes4nvim8terminal8terminalNtB5_12TerminalInfoNtB5_8Terminal9configure
FNDA:0,_RNvXs0_NtNtNtCs35aDzIjzncu_6hermes4nvim8terminal8terminalNtB5_12TerminalInfoNtB5_8Terminal9truncated
FNF:62
FNH:24
DA:30,0
DA:31,0
DA:32,0
DA:33,0
DA:34,0
DA:35,0
DA:36,0
DA:45,14
DA:46,14
DA:47,14
DA:48,14
DA:49,14
DA:50,14
DA:51,14
DA:52,14
DA:53,14
DA:54,14
DA:55,11
DA:56,11
DA:57,10
DA:58,10
DA:59,10
DA:60,10
DA:61,10
DA:62,3
DA:63,14
DA:69,8
DA:70,8
DA:71,8
DA:72,8
DA:73,8
DA:74,8
DA:76,8
DA:77,8
DA:78,1
DA:79,0
DA:80,0
DA:82,7
DA:83,7
DA:85,8
DA:88,0
DA:89,0
DA:90,0
DA:91,0
DA:92,0
DA:93,0
DA:95,0
DA:96,0
DA:97,0
DA:98,0
DA:99,0
DA:100,0
DA:101,0
DA:102,0
DA:103,0
DA:104,0
DA:105,0
DA:106,0
DA:107,0
DA:108,0
DA:109,0
DA:110,0
DA:111,0
DA:113,0
DA:114,0
DA:115,0
DA:116,0
DA:117,0
DA:118,0
DA:119,0
DA:120,0
DA:121,0
DA:122,0
DA:123,0
DA:124,0
DA:125,0
DA:126,0
DA:127,0
DA:128,0
DA:129,0
DA:131,0
DA:132,0
DA:133,0
DA:134,0
DA:135,0
DA:136,0
DA:137,0
DA:138,0
DA:139,0
DA:140,0
DA:141,0
DA:142,0
DA:143,0
DA:144,0
DA:145,0
DA:147,0
DA:148,0
DA:150,0
DA:151,0
DA:152,0
DA:153,0
DA:155,0
DA:156,0
DA:157,0
DA:159,0
DA:160,0
DA:161,0
DA:162,0
DA:163,0
DA:165,0
DA:166,0
DA:167,0
DA:168,0
DA:169,0
DA:171,0
DA:172,0
DA:173,0
DA:174,0
DA:175,0
DA:176,0
DA:181,0
DA:183,0
DA:186,0
DA:187,0
DA:189,0
DA:191,0
DA:192,0
DA:193,0
DA:195,0
DA:196,0
DA:197,0
DA:198,0
DA:199,0
DA:201,0
DA:202,0
DA:203,0
DA:205,0
DA:206,0
DA:207,0
DA:239,0
DA:240,0
DA:241,0
DA:243,0
DA:244,0
DA:245,0
DA:247,0
DA:248,0
DA:249,0
DA:251,0
DA:252,0
DA:253,0
DA:254,0
DA:255,0
DA:256,0
DA:257,0
DA:258,0
DA:260,0
DA:261,0
DA:262,0
DA:263,0
DA:264,0
DA:265,0
DA:266,0
DA:267,0
DA:268,0
DA:269,0
DA:270,0
DA:271,0
DA:273,0
DA:274,0
DA:275,0
DA:276,0
DA:277,0
DA:278,0
DA:279,0
DA:281,0
DA:283,0
DA:284,0
DA:285,0
DA:286,0
DA:287,0
DA:288,0
DA:289,0
DA:291,0
DA:292,0
DA:293,0
DA:294,0
DA:295,0
DA:296,0
DA:298,0
DA:299,0
DA:300,0
DA:301,0
DA:303,0
DA:304,0
DA:305,0
DA:307,0
DA:308,0
DA:309,0
DA:310,0
DA:312,0
DA:313,0
DA:314,0
DA:316,0
DA:318,0
DA:319,0
DA:320,0
DA:321,0
DA:322,0
DA:323,0
DA:325,0
DA:327,0
DA:329,0
DA:330,0
DA:331,0
DA:342,1
DA:343,1
DA:344,1
DA:346,1
DA:347,1
DA:348,1
DA:349,1
DA:350,1
DA:353,1
DA:354,1
DA:357,1
DA:358,1
DA:359,1
DA:360,1
DA:362,1
DA:363,1
DA:364,1
DA:365,1
DA:366,1
DA:369,1
DA:370,1
DA:373,1
DA:374,1
DA:375,1
DA:377,1
DA:378,1
DA:379,1
DA:380,1
DA:381,1
DA:384,1
DA:385,1
DA:388,1
DA:389,1
DA:390,1
DA:392,1
DA:393,1
DA:394,1
DA:395,1
DA:396,1
DA:399,1
DA:400,1
DA:403,1
DA:404,1
DA:405,1
DA:407,1
DA:408,1
DA:409,1
DA:410,1
DA:411,1
DA:414,1
DA:415,1
DA:416,1
DA:419,1
DA:420,1
DA:421,1
DA:422,1
DA:424,1
DA:426,1
DA:427,1
DA:428,1
DA:431,1
DA:433,1
DA:434,1
DA:435,1
DA:437,1
DA:440,1
DA:441,1
DA:444,1
DA:447,1
DA:448,1
DA:449,1
DA:450,1
DA:452,1
DA:454,1
DA:455,1
DA:458,1
DA:459,1
DA:460,1
DA:461,1
DA:463,1
DA:466,1
DA:467,1
DA:470,1
DA:472,1
DA:473,1
DA:474,1
DA:476,1
DA:478,1
DA:479,1
DA:482,1
DA:485,1
DA:486,1
DA:487,1
DA:488,1
DA:490,1
DA:492,1
DA:493,1
DA:496,1
DA:498,1
DA:499,1
DA:500,1
DA:502,1
DA:504,1
DA:505,1
DA:508,1
DA:511,1
DA:512,1
DA:513,1
DA:514,1
DA:516,1
DA:518,1
DA:519,1
DA:522,1
DA:523,1
DA:524,1
DA:525,1
DA:527,1
DA:529,1
DA:530,1
DA:535,1
DA:536,1
DA:539,1
DA:540,1
DA:542,1
DA:544,1
DA:545,1
DA:546,1
DA:550,1
DA:551,1
DA:552,1
DA:553,1
DA:554,1
DA:557,1
DA:558,1
DA:559,1
DA:561,1
DA:563,1
DA:564,1
DA:565,1
DA:568,1
DA:570,1
DA:571,1
DA:572,1
DA:575,1
DA:576,1
DA:577,1
DA:579,1
DA:581,1
DA:582,1
DA:583,1
DA:586,1
DA:588,1
DA:589,1
DA:592,1
DA:593,1
DA:594,1
DA:598,1
DA:600,1
DA:601,1
DA:602,1
DA:605,1
DA:607,1
DA:608,1
DA:611,1
DA:612,1
DA:613,1
DA:615,1
DA:617,1
DA:618,1
DA:619,1
DA:622,1
DA:623,1
DA:624,1
DA:627,1
DA:628,1
DA:629,1
DA:631,1
DA:633,1
DA:634,1
DA:635,1
DA:638,1
DA:639,1
DA:640,1
DA:643,1
DA:644,1
DA:645,1
DA:647,1
DA:649,1
DA:650,1
DA:651,1
DA:654,1
DA:655,1
DA:656,1
DA:659,1
DA:660,1
DA:661,1
DA:663,1
DA:665,1
DA:666,1
DA:667,1
DA:670,1
DA:671,1
DA:672,1
BRF:0
BRH:0
LF:440
LH:234
end_of_record
SF:/var/www/hermes/src/utilities/file.rs
FN:164,_RNvNtNtNtCs35aDzIjzncu_6hermes9utilities4file5tests27create_test_file_with_lines
FN:178,_RNvNtNtNtCs35aDzIjzncu_6hermes9utilities4file5testss_27read_file_content_full_file
FN:230,_RNvNtNtNtCs35aDzIjzncu_6hermes9utilities4file5testss_28read_file_content_empty_file
FN:203,_RNvNtNtNtCs35aDzIjzncu_6hermes9utilities4file5testss_31read_file_content_with_end_line
FN:193,_RNvNtNtNtCs35aDzIjzncu_6hermes9utilities4file5testss_33read_file_content_with_start_line
FN:267,_RNvNtNtNtCs35aDzIjzncu_6hermes9utilities4file5testss_35read_file_content_preserves_unix_lf
FN:213,_RNvNtNtNtCs35aDzIjzncu_6hermes9utilities4file5testss_36read_file_content_with_start_and_end
FN:238,_RNvNtNtNtCs35aDzIjzncu_6hermes9utilities4file5testss_38read_file_content_invalid_range_errors
FN:318,_RNvNtNtNtCs35aDzIjzncu_6hermes9utilities4file5testss_39read_file_content_empty_lines_with_crlf
FN:222,_RNvNtNtNtCs35aDzIjzncu_6hermes9utilities4file5testss_40read_file_content_end_zero_returns_empty
FN:247,_RNvNtNtNtCs35aDzIjzncu_6hermes9utilities4file5testss_41read_file_content_nonexistent_file_errors
FN:256,_RNvNtNtNtCs35aDzIjzncu_6hermes9utilities4file5testss_41read_file_content_normalizes_windows_crlf
FN:307,_RNvNtNtNtCs35aDzIjzncu_6hermes9utilities4file5testss_42read_file_content_crlf_last_line_no_ending
FN:278,_RNvNtNtNtCs35aDzIjzncu_6hermes9utilities4file5testss_44read_file_content_handles_mixed_line_endings
FN:289,_RNvNtNtNtCs35aDzIjzncu_6hermes9utilities4file5testss_48read_file_content_crlf_line_counting_is_accurate
FN:187,_RNCNvNtNtNtCs35aDzIjzncu_6hermes9utilities4file5testss_27read_file_content_full_file0B9_
FN:208,_RNCNvNtNtNtCs35aDzIjzncu_6hermes9utilities4file5testss_31read_file_content_with_end_line0B9_
FN:111,_RNvNtNtCs35aDzIjzncu_6hermes9utilities4file12refresh_view
FN:18,_RNvNtNtCs35aDzIjzncu_6hermes9utilities4file13escape_for_ex
FN:115,_RNvNtNtCs35aDzIjzncu_6hermes9utilities4file17read_file_content
FN:93,_RNvNtNtCs35aDzIjzncu_6hermes9utilities4file19save_buffer_to_disk
FN:33,_RNvNtNtCs35aDzIjzncu_6hermes9utilities4file20find_existing_buffer
FN:80,_RNvNtNtCs35aDzIjzncu_6hermes9utilities4file20mark_buffer_modified
FN:70,_RNvNtNtCs35aDzIjzncu_6hermes9utilities4file21update_buffer_content
FN:47,_RNvNtNtCs35aDzIjzncu_6hermes9utilities4file24acquire_or_create_buffer
FN:11,_RNvNtNtCs35aDzIjzncu_6hermes9utilities4file27detect_project_storage_path
FN:97,_RNCNCNvNtNtCs35aDzIjzncu_6hermes9utilities4file19save_buffer_to_disk00B9_
FN:35,_RNCNCNvNtNtCs35aDzIjzncu_6hermes9utilities4file20find_existing_buffer00B9_
FN:58,_RNCNCNvNtNtCs35aDzIjzncu_6hermes9utilities4file24acquire_or_create_buffers_00B9_
FN:112,_RNCNvNtNtCs35aDzIjzncu_6hermes9utilities4file12refresh_view0B7_
FN:118,_RNCNvNtNtCs35aDzIjzncu_6hermes9utilities4file17read_file_content0B7_
FN:123,_RNCNvNtNtCs35aDzIjzncu_6hermes9utilities4file17read_file_contents0_0B7_
FN:138,_RNCNvNtNtCs35aDzIjzncu_6hermes9utilities4file17read_file_contents1_0B7_
FN:122,_RNCNvNtNtCs35aDzIjzncu_6hermes9utilities4file17read_file_contents_0B7_
FN:95,_RNCNvNtNtCs35aDzIjzncu_6hermes9utilities4file19save_buffer_to_disk0B7_
FN:105,_RNCNvNtNtCs35aDzIjzncu_6hermes9utilities4file19save_buffer_to_disks_0B7_
FN:34,_RNCNvNtNtCs35aDzIjzncu_6hermes9utilities4file20find_existing_buffer0B7_
FN:88,_RNCNvNtNtCs35aDzIjzncu_6hermes9utilities4file20mark_buffer_modified0B7_
FN:76,_RNCNvNtNtCs35aDzIjzncu_6hermes9utilities4file21update_buffer_content0B7_
FN:54,_RNCNvNtNtCs35aDzIjzncu_6hermes9utilities4file24acquire_or_create_buffer0B7_
FN:59,_RNCNvNtNtCs35aDzIjzncu_6hermes9utilities4file24acquire_or_create_buffers0_0B7_
FN:58,_RNCNvNtNtCs35aDzIjzncu_6hermes9utilities4file24acquire_or_create_buffers_0B7_
FN:13,_RNCNvNtNtCs35aDzIjzncu_6hermes9utilities4file27detect_project_storage_path0B7_
FNDA:6,_RNvNtNtNtCs35aDzIjzncu_6hermes9utilities4file5tests27create_test_file_with_lines
FNDA:1,_RNvNtNtNtCs35aDzIjzncu_6hermes9utilities4file5testss_27read_file_content_full_file
FNDA:1,_RNvNtNtNtCs35aDzIjzncu_6hermes9utilities4file5testss_28read_file_content_empty_file
FNDA:1,_RNvNtNtNtCs35aDzIjzncu_6hermes9utilities4file5testss_31read_file_content_with_end_line
FNDA:1,_RNvNtNtNtCs35aDzIjzncu_6hermes9utilities4file5testss_33read_file_content_with_start_line
FNDA:1,_RNvNtNtNtCs35aDzIjzncu_6hermes9utilities4file5testss_35read_file_content_preserves_unix_lf
FNDA:1,_RNvNtNtNtCs35aDzIjzncu_6hermes9utilities4file5testss_36read_file_content_with_start_and_end
FNDA:1,_RNvNtNtNtCs35aDzIjzncu_6hermes9utilities4file5testss_38read_file_content_invalid_range_errors
FNDA:1,_RNvNtNtNtCs35aDzIjzncu_6hermes9utilities4file5testss_39read_file_content_empty_lines_with_crlf
FNDA:1,_RNvNtNtNtCs35aDzIjzncu_6hermes9utilities4file5testss_40read_file_content_end_zero_returns_empty
FNDA:1,_RNvNtNtNtCs35aDzIjzncu_6hermes9utilities4file5testss_41read_file_content_nonexistent_file_errors
FNDA:1,_RNvNtNtNtCs35aDzIjzncu_6hermes9utilities4file5testss_41read_file_content_normalizes_windows_crlf
FNDA:1,_RNvNtNtNtCs35aDzIjzncu_6hermes9utilities4file5testss_42read_file_content_crlf_last_line_no_ending
FNDA:1,_RNvNtNtNtCs35aDzIjzncu_6hermes9utilities4file5testss_44read_file_content_handles_mixed_line_endings
FNDA:1,_RNvNtNtNtCs35aDzIjzncu_6hermes9utilities4file5testss_48read_file_content_crlf_line_counting_is_accurate
FNDA:5,_RNCNvNtNtNtCs35aDzIjzncu_6hermes9utilities4file5testss_27read_file_content_full_file0B9_
FNDA:3,_RNCNvNtNtNtCs35aDzIjzncu_6hermes9utilities4file5testss_31read_file_content_with_end_line0B9_
FNDA:0,_RNvNtNtCs35aDzIjzncu_6hermes9utilities4file12refresh_view
FNDA:0,_RNvNtNtCs35aDzIjzncu_6hermes9utilities4file13escape_for_ex
FNDA:14,_RNvNtNtCs35aDzIjzncu_6hermes9utilities4file17read_file_content
FNDA:0,_RNvNtNtCs35aDzIjzncu_6hermes9utilities4file19save_buffer_to_disk
FNDA:0,_RNvNtNtCs35aDzIjzncu_6hermes9utilities4file20find_existing_buffer
FNDA:0,_RNvNtNtCs35aDzIjzncu_6hermes9utilities4file20mark_buffer_modified
FNDA:0,_RNvNtNtCs35aDzIjzncu_6hermes9utilities4file21update_buffer_content
FNDA:0,_RNvNtNtCs35aDzIjzncu_6hermes9utilities4file24acquire_or_create_buffer
FNDA:0,_RNvNtNtCs35aDzIjzncu_6hermes9utilities4file27detect_project_storage_path
FNDA:0,_RNCNCNvNtNtCs35aDzIjzncu_6hermes9utilities4file19save_buffer_to_disk00B9_
FNDA:0,_RNCNCNvNtNtCs35aDzIjzncu_6hermes9utilities4file20find_existing_buffer00B9_
FNDA:0,_RNCNCNvNtNtCs35aDzIjzncu_6hermes9utilities4file24acquire_or_create_buffers_00B9_
FNDA:0,_RNCNvNtNtCs35aDzIjzncu_6hermes9utilities4file12refresh_view0B7_
FNDA:1,_RNCNvNtNtCs35aDzIjzncu_6hermes9utilities4file17read_file_content0B7_
FNDA:5,_RNCNvNtNtCs35aDzIjzncu_6hermes9utilities4file17read_file_contents0_0B7_
FNDA:0,_RNCNvNtNtCs35aDzIjzncu_6hermes9utilities4file17read_file_contents1_0B7_
FNDA:4,_RNCNvNtNtCs35aDzIjzncu_6hermes9utilities4file17read_file_contents_0B7_
FNDA:0,_RNCNvNtNtCs35aDzIjzncu_6hermes9utilities4file19save_buffer_to_disk0B7_
FNDA:0,_RNCNvNtNtCs35aDzIjzncu_6hermes9utilities4file19save_buffer_to_disks_0B7_
FNDA:0,_RNCNvNtNtCs35aDzIjzncu_6hermes9utilities4file20find_existing_buffer0B7_
FNDA:0,_RNCNvNtNtCs35aDzIjzncu_6hermes9utilities4file20mark_buffer_modified0B7_
FNDA:0,_RNCNvNtNtCs35aDzIjzncu_6hermes9utilities4file21update_buffer_content0B7_
FNDA:0,_RNCNvNtNtCs35aDzIjzncu_6hermes9utilities4file24acquire_or_create_buffer0B7_
FNDA:0,_RNCNvNtNtCs35aDzIjzncu_6hermes9utilities4file24acquire_or_create_buffers0_0B7_
FNDA:0,_RNCNvNtNtCs35aDzIjzncu_6hermes9utilities4file24acquire_or_create_buffers_0B7_
FNDA:0,_RNCNvNtNtCs35aDzIjzncu_6hermes9utilities4file27detect_project_storage_path0B7_
FNF:43
FNH:21
DA:11,0
DA:12,0
DA:13,0
DA:14,0
DA:15,0
DA:16,0
DA:18,0
DA:19,0
DA:20,0
DA:21,0
DA:22,0
DA:23,0
DA:24,0
DA:25,0
DA:26,0
DA:29,0
DA:30,0
DA:33,0
DA:34,0
DA:35,0
DA:36,0
DA:37,0
DA:38,0
DA:39,0
DA:40,0
DA:42,0
DA:43,0
DA:44,0
DA:47,0
DA:48,0
DA:49,0
DA:50,0
DA:52,0
DA:53,0
DA:54,0
DA:56,0
DA:57,0
DA:58,0
DA:59,0
DA:60,0
DA:61,0
DA:62,0
DA:63,0
DA:64,0
DA:66,0
DA:67,0
DA:70,0
DA:71,0
DA:72,0
DA:74,0
DA:76,0
DA:77,0
DA:80,0
DA:81,0
DA:82,0
DA:84,0
DA:85,0
DA:86,0
DA:88,0
DA:89,0
DA:90,0
DA:93,0
DA:95,0
DA:96,0
DA:97,0
DA:98,0
DA:102,0
DA:103,0
DA:104,0
DA:105,0
DA:107,0
DA:108,0
DA:111,0
DA:112,0
DA:113,0
DA:115,14
DA:118,14
DA:119,13
DA:122,13
DA:123,13
DA:126,13
DA:127,5
DA:129,1
DA:130,1
DA:131,1
DA:132,1
DA:133,12
DA:135,12
DA:137,42
DA:138,42
DA:141,42
DA:142,15
DA:144,4
DA:145,38
DA:148,38
DA:150,38
DA:151,33
DA:152,33
DA:153,33
DA:156,12
DA:157,14
DA:164,6
DA:165,6
DA:166,6
DA:168,30
DA:169,30
DA:170,30
DA:171,30
DA:172,30
DA:174,6
DA:175,6
DA:178,1
DA:179,1
DA:180,1
DA:182,1
DA:183,1
DA:185,1
DA:186,1
DA:187,5
DA:188,1
DA:190,1
DA:193,1
DA:194,1
DA:195,1
DA:197,1
DA:199,1
DA:200,1
DA:203,1
DA:204,1
DA:205,1
DA:207,1
DA:208,3
DA:209,1
DA:210,1
DA:213,1
DA:214,1
DA:215,1
DA:217,1
DA:218,1
DA:219,1
DA:222,1
DA:223,1
DA:224,1
DA:226,1
DA:227,1
DA:230,1
DA:231,1
DA:232,1
DA:234,1
DA:235,1
DA:238,1
DA:239,1
DA:240,1
DA:241,1
DA:242,1
DA:243,1
DA:244,1
DA:247,1
DA:248,1
DA:250,1
DA:251,1
DA:256,1
DA:257,1
DA:259,1
DA:261,1
DA:263,1
DA:264,1
DA:267,1
DA:268,1
DA:270,1
DA:272,1
DA:274,1
DA:275,1
DA:278,1
DA:279,1
DA:281,1
DA:283,1
DA:285,1
DA:286,1
DA:289,1
DA:290,1
DA:292,1
DA:293,1
DA:294,1
DA:297,1
DA:298,1
DA:301,1
DA:302,1
DA:303,1
DA:304,1
DA:307,1
DA:308,1
DA:310,1
DA:312,1
DA:314,1
DA:315,1
DA:318,1
DA:319,1
DA:321,1
DA:322,1
DA:323,1
DA:325,1
DA:326,1
DA:329,1
DA:330,1
DA:331,1
DA:332,1
DA:333,1
BRF:0
BRH:0
LF:228
LH:138
end_of_record
SF:/var/www/hermes/src/utilities/logging/channel.rs
FN:267,_RNCNvXININtNtNtCs35aDzIjzncu_6hermes9utilities7logging7channels4_0pEINtB7_18ChannelWriterGuardpENtNtCsaa59N1qzrfe_3std2io5Write5flush0Bd_
FN:255,_RNCNvXININtNtNtCs35aDzIjzncu_6hermes9utilities7logging7channels4_0pEINtB7_18ChannelWriterGuardpENtNtCsaa59N1qzrfe_3std2io5Write5write0Bd_
FN:300,_RNCNvXININtNtNtCs35aDzIjzncu_6hermes9utilities7logging7channels6_0pEINtB7_17DirectWriterGuardpENtNtCsaa59N1qzrfe_3std2io5Write5flush0Bd_
FN:292,_RNCNvXININtNtNtCs35aDzIjzncu_6hermes9utilities7logging7channels6_0pEINtB7_17DirectWriterGuardpENtNtCsaa59N1qzrfe_3std2io5Write5write0Bd_
FN:75,_RNvMs0_NtNtNtCs35aDzIjzncu_6hermes9utilities7logging7channelINtB5_13ChannelWriterpE6new_uiBb_
FN:245,_RNvMs3_NtNtNtCs35aDzIjzncu_6hermes9utilities7logging7channelINtB5_18ChannelWriterGuardpE3newBb_
FN:282,_RNvMs5_NtNtNtCs35aDzIjzncu_6hermes9utilities7logging7channelINtB5_17DirectWriterGuardpE3newBb_
FN:263,_RNvXININtNtNtCs35aDzIjzncu_6hermes9utilities7logging7channels4_0pEINtB5_18ChannelWriterGuardpENtNtCsaa59N1qzrfe_3std2io5Write5flushBb_
FN:251,_RNvXININtNtNtCs35aDzIjzncu_6hermes9utilities7logging7channels4_0pEINtB5_18ChannelWriterGuardpENtNtCsaa59N1qzrfe_3std2io5Write5writeBb_
FN:296,_RNvXININtNtNtCs35aDzIjzncu_6hermes9utilities7logging7channels6_0pEINtB5_17DirectWriterGuardpENtNtCsaa59N1qzrfe_3std2io5Write5flushBb_
FN:288,_RNvXININtNtNtCs35aDzIjzncu_6hermes9utilities7logging7channels6_0pEINtB5_17DirectWriterGuardpENtNtCsaa59N1qzrfe_3std2io5Write5writeBb_
FN:42,_RNvXININtNtNtCs35aDzIjzncu_6hermes9utilities7logging7channels_0pEINtB5_13ChannelWriterpENtNtCs4kUJL3MZFFz_4core3fmt5Debug3fmtBb_
FN:497,_RNCNvNtNtNtNtCs35aDzIjzncu_6hermes9utilities7logging7channel5testss_42test_channel_writer_concurrent_writes_safe0Bb_
FN:327,_RNvMNtNtNtNtCs35aDzIjzncu_6hermes9utilities7logging7channel5testsNtB2_12TrackingSink12get_messages
FN:331,_RNvMNtNtNtNtCs35aDzIjzncu_6hermes9utilities7logging7channel5testsNtB2_12TrackingSink15get_flush_count
FN:320,_RNvMNtNtNtNtCs35aDzIjzncu_6hermes9utilities7logging7channel5testsNtB2_12TrackingSink3new
FN:360,_RNvNtNtNtNtCs35aDzIjzncu_6hermes9utilities7logging7channel5testss_33test_channel_writer_empty_message
FN:422,_RNvNtNtNtNtCs35aDzIjzncu_6hermes9utilities7logging7channel5testss_33test_channel_writer_timeout_flush
FN:437,_RNvNtNtNtNtCs35aDzIjzncu_6hermes9utilities7logging7channel5testss_34test_channel_worker_death_graceful
FN:473,_RNvNtNtNtNtCs35aDzIjzncu_6hermes9utilities7logging7channel5testss_34test_channel_writer_empty_shutdown
FN:349,_RNvNtNtNtNtCs35aDzIjzncu_6hermes9utilities7logging7channel5testss_34test_channel_writer_with_null_sink
FN:388,_RNvNtNtNtNtCs35aDzIjzncu_6hermes9utilities7logging7channel5testss_36test_channel_writer_batches_messages
FN:369,_RNvNtNtNtNtCs35aDzIjzncu_6hermes9utilities7logging7channel5testss_39test_channel_writer_tracks_all_messages
FN:456,_RNvNtNtNtNtCs35aDzIjzncu_6hermes9utilities7logging7channel5testss_40test_channel_writer_clone_shares_channel
FN:490,_RNvNtNtNtNtCs35aDzIjzncu_6hermes9utilities7logging7channel5testss_42test_channel_writer_concurrent_writes_safe
FN:407,_RNvNtNtNtNtCs35aDzIjzncu_6hermes9utilities7logging7channel5testss_45test_channel_writer_flush_triggers_sink_flush
FN:337,_RNvXs_NtNtNtNtCs35aDzIjzncu_6hermes9utilities7logging7channel5testsNtB4_12TrackingSinkNtNtB8_4sink7LogSink11write_batch
FN:342,_RNvXs_NtNtNtNtCs35aDzIjzncu_6hermes9utilities7logging7channel5testsNtB4_12TrackingSinkNtNtB8_4sink7LogSink5flush
FN:135,_RNCNvMs2_NtNtNtCs35aDzIjzncu_6hermes9utilities7logging7channelINtB7_6WorkerNtNtB7_5tests12TrackingSinkE5spawn0Bd_
FN:135,_RNCNvMs2_NtNtNtCs35aDzIjzncu_6hermes9utilities7logging7channelINtB7_6WorkerNtNtB9_4sink8NullSinkE5spawn0Bd_
FN:135,_RNCNvMs2_NtNtNtCs35aDzIjzncu_6hermes9utilities7logging7channelINtB7_6WorkerNtNtNtB9_4sink4file8FileSinkE5spawn0Bd_
FN:54,_RNvMs0_NtNtNtCs35aDzIjzncu_6hermes9utilities7logging7channelINtB5_13ChannelWriterNtNtB5_5tests12TrackingSinkE3newBb_
FN:85,_RNvMs0_NtNtNtCs35aDzIjzncu_6hermes9utilities7logging7channelINtB5_13ChannelWriterNtNtB5_5tests12TrackingSinkE8shutdownBb_
FN:54,_RNvMs0_NtNtNtCs35aDzIjzncu_6hermes9utilities7logging7channelINtB5_13ChannelWriterNtNtB7_4sink8NullSinkE3newBb_
FN:85,_RNvMs0_NtNtNtCs35aDzIjzncu_6hermes9utilities7logging7channelINtB5_13ChannelWriterNtNtB7_4sink8NullSinkE8shutdownBb_
FN:54,_RNvMs0_NtNtNtCs35aDzIjzncu_6hermes9utilities7logging7channelINtB5_13ChannelWriterNtNtNtB7_4sink4file8FileSinkE3newBb_
FN:67,_RNvMs0_NtNtNtCs35aDzIjzncu_6hermes9utilities7logging7channelINtB5_13ChannelWriterNtNtNtB7_4sink4file8FileSinkE8new_fileBb_
FN:85,_RNvMs0_NtNtNtCs35aDzIjzncu_6hermes9utilities7logging7channelINtB5_13ChannelWriterNtNtNtB7_4sink4file8FileSinkE8shutdownBb_
FN:234,_RNvMs2_NtNtNtCs35aDzIjzncu_6hermes9utilities7logging7channelINtB5_6WorkerNtNtB5_5tests12TrackingSinkE4joinBb_
FN:134,_RNvMs2_NtNtNtCs35aDzIjzncu_6hermes9utilities7logging7channelINtB5_6WorkerNtNtB5_5tests12TrackingSinkE5spawnBb_
FN:234,_RNvMs2_NtNtNtCs35aDzIjzncu_6hermes9utilities7logging7channelINtB5_6WorkerNtNtB7_4sink8NullSinkE4joinBb_
FN:134,_RNvMs2_NtNtNtCs35aDzIjzncu_6hermes9utilities7logging7channelINtB5_6WorkerNtNtB7_4sink8NullSinkE5spawnBb_
FN:234,_RNvMs2_NtNtNtCs35aDzIjzncu_6hermes9utilities7logging7channelINtB5_6WorkerNtNtNtB7_4sink4file8FileSinkE4joinBb_
FN:134,_RNvMs2_NtNtNtCs35aDzIjzncu_6hermes9utilities7logging7channelINtB5_6WorkerNtNtNtB7_4sink4file8FileSinkE5spawnBb_
FN:33,_RNvXNtNtNtCs35aDzIjzncu_6hermes9utilities7logging7channelINtB2_13ChannelWriterNtNtB2_5tests12TrackingSinkENtNtCs4kUJL3MZFFz_4core5clone5Clone5cloneB8_
FN:33,_RNvXNtNtNtCs35aDzIjzncu_6hermes9utilities7logging7channelINtB2_13ChannelWriterNtNtB4_4sink8NullSinkENtNtCs4kUJL3MZFFz_4core5clone5Clone5cloneB8_
FN:33,_RNvXNtNtNtCs35aDzIjzncu_6hermes9utilities7logging7channelINtB2_13ChannelWriterNtNtNtB4_4sink4file8FileSinkENtNtCs4kUJL3MZFFz_4core5clone5Clone5cloneB8_
FN:116,_RNvXs1_NtNtNtCs35aDzIjzncu_6hermes9utilities7logging7channelINtB5_13ChannelWriterNtNtB5_5tests12TrackingSinkENtNtCsaa59N1qzrfe_3std2io5Write5flushBb_
FN:99,_RNvXs1_NtNtNtCs35aDzIjzncu_6hermes9utilities7logging7channelINtB5_13ChannelWriterNtNtB5_5tests12TrackingSinkENtNtCsaa59N1qzrfe_3std2io5Write5writeBb_
FN:116,_RNvXs1_NtNtNtCs35aDzIjzncu_6hermes9utilities7logging7channelINtB5_13ChannelWriterNtNtB7_4sink8NullSinkENtNtCsaa59N1qzrfe_3std2io5Write5flushBb_
FN:99,_RNvXs1_NtNtNtCs35aDzIjzncu_6hermes9utilities7logging7channelINtB5_13ChannelWriterNtNtB7_4sink8NullSinkENtNtCsaa59N1qzrfe_3std2io5Write5writeBb_
FN:116,_RNvXs1_NtNtNtCs35aDzIjzncu_6hermes9utilities7logging7channelINtB5_13ChannelWriterNtNtNtB7_4sink4file8FileSinkENtNtCsaa59N1qzrfe_3std2io5Write5flushBb_
FN:99,_RNvXs1_NtNtNtCs35aDzIjzncu_6hermes9utilities7logging7channelINtB5_13ChannelWriterNtNtNtB7_4sink4file8FileSinkENtNtCsaa59N1qzrfe_3std2io5Write5writeBb_
FNDA:0,_RNCNvXININtNtNtCs35aDzIjzncu_6hermes9utilities7logging7channels4_0pEINtB7_18ChannelWriterGuardpENtNtCsaa59N1qzrfe_3std2io5Write5flush0Bd_
FNDA:0,_RNCNvXININtNtNtCs35aDzIjzncu_6hermes9utilities7logging7channels4_0pEINtB7_18ChannelWriterGuardpENtNtCsaa59N1qzrfe_3std2io5Write5write0Bd_
FNDA:0,_RNCNvXININtNtNtCs35aDzIjzncu_6hermes9utilities7logging7channels6_0pEINtB7_17DirectWriterGuardpENtNtCsaa59N1qzrfe_3std2io5Write5flush0Bd_
FNDA:0,_RNCNvXININtNtNtCs35aDzIjzncu_6hermes9utilities7logging7channels6_0pEINtB7_17DirectWriterGuardpENtNtCsaa59N1qzrfe_3std2io5Write5write0Bd_
FNDA:0,_RNvMs0_NtNtNtCs35aDzIjzncu_6hermes9utilities7logging7channelINtB5_13ChannelWriterpE6new_uiBb_
FNDA:0,_RNvMs3_NtNtNtCs35aDzIjzncu_6hermes9utilities7logging7channelINtB5_18ChannelWriterGuardpE3newBb_
FNDA:0,_RNvMs5_NtNtNtCs35aDzIjzncu_6hermes9utilities7logging7channelINtB5_17DirectWriterGuardpE3newBb_
FNDA:0,_RNvXININtNtNtCs35aDzIjzncu_6hermes9utilities7logging7channels4_0pEINtB5_18ChannelWriterGuardpENtNtCsaa59N1qzrfe_3std2io5Write5flushBb_
FNDA:0,_RNvXININtNtNtCs35aDzIjzncu_6hermes9utilities7logging7channels4_0pEINtB5_18ChannelWriterGuardpENtNtCsaa59N1qzrfe_3std2io5Write5writeBb_
FNDA:0,_RNvXININtNtNtCs35aDzIjzncu_6hermes9utilities7logging7channels6_0pEINtB5_17DirectWriterGuardpENtNtCsaa59N1qzrfe_3std2io5Write5flushBb_
FNDA:0,_RNvXININtNtNtCs35aDzIjzncu_6hermes9utilities7logging7channels6_0pEINtB5_17DirectWriterGuardpENtNtCsaa59N1qzrfe_3std2io5Write5writeBb_
FNDA:0,_RNvXININtNtNtCs35aDzIjzncu_6hermes9utilities7logging7channels_0pEINtB5_13ChannelWriterpENtNtCs4kUJL3MZFFz_4core3fmt5Debug3fmtBb_
FNDA:5,_RNCNvNtNtNtNtCs35aDzIjzncu_6hermes9utilities7logging7channel5testss_42test_channel_writer_concurrent_writes_safe0Bb_
FNDA:5,_RNvMNtNtNtNtCs35aDzIjzncu_6hermes9utilities7logging7channel5testsNtB2_12TrackingSink12get_messages
FNDA:2,_RNvMNtNtNtNtCs35aDzIjzncu_6hermes9utilities7logging7channel5testsNtB2_12TrackingSink15get_flush_count
FNDA:7,_RNvMNtNtNtNtCs35aDzIjzncu_6hermes9utilities7logging7channel5testsNtB2_12TrackingSink3new
FNDA:1,_RNvNtNtNtNtCs35aDzIjzncu_6hermes9utilities7logging7channel5testss_33test_channel_writer_empty_message
FNDA:1,_RNvNtNtNtNtCs35aDzIjzncu_6hermes9utilities7logging7channel5testss_33test_channel_writer_timeout_flush
FNDA:1,_RNvNtNtNtNtCs35aDzIjzncu_6hermes9utilities7logging7channel5testss_34test_channel_worker_death_graceful
FNDA:1,_RNvNtNtNtNtCs35aDzIjzncu_6hermes9utilities7logging7channel5testss_34test_channel_writer_empty_shutdown
FNDA:1,_RNvNtNtNtNtCs35aDzIjzncu_6hermes9utilities7logging7channel5testss_34test_channel_writer_with_null_sink
FNDA:1,_RNvNtNtNtNtCs35aDzIjzncu_6hermes9utilities7logging7channel5testss_36test_channel_writer_batches_messages
FNDA:1,_RNvNtNtNtNtCs35aDzIjzncu_6hermes9utilities7logging7channel5testss_39test_channel_writer_tracks_all_messages
FNDA:1,_RNvNtNtNtNtCs35aDzIjzncu_6hermes9utilities7logging7channel5testss_40test_channel_writer_clone_shares_channel
FNDA:1,_RNvNtNtNtNtCs35aDzIjzncu_6hermes9utilities7logging7channel5testss_42test_channel_writer_concurrent_writes_safe
FNDA:1,_RNvNtNtNtNtCs35aDzIjzncu_6hermes9utilities7logging7channel5testss_45test_channel_writer_flush_triggers_sink_flush
FNDA:8,_RNvXs_NtNtNtNtCs35aDzIjzncu_6hermes9utilities7logging7channel5testsNtB4_12TrackingSinkNtNtB8_4sink7LogSink11write_batch
FNDA:19,_RNvXs_NtNtNtNtCs35aDzIjzncu_6hermes9utilities7logging7channel5testsNtB4_12TrackingSinkNtNtB8_4sink7LogSink5flush
FNDA:7,_RNCNvMs2_NtNtNtCs35aDzIjzncu_6hermes9utilities7logging7channelINtB7_6WorkerNtNtB7_5tests12TrackingSinkE5spawn0Bd_
FNDA:3,_RNCNvMs2_NtNtNtCs35aDzIjzncu_6hermes9utilities7logging7channelINtB7_6WorkerNtNtB9_4sink8NullSinkE5spawn0Bd_
FNDA:6,_RNCNvMs2_NtNtNtCs35aDzIjzncu_6hermes9utilities7logging7channelINtB7_6WorkerNtNtNtB9_4sink4file8FileSinkE5spawn0Bd_
FNDA:7,_RNvMs0_NtNtNtCs35aDzIjzncu_6hermes9utilities7logging7channelINtB5_13ChannelWriterNtNtB5_5tests12TrackingSinkE3newBb_
FNDA:7,_RNvMs0_NtNtNtCs35aDzIjzncu_6hermes9utilities7logging7channelINtB5_13ChannelWriterNtNtB5_5tests12TrackingSinkE8shutdownBb_
FNDA:3,_RNvMs0_NtNtNtCs35aDzIjzncu_6hermes9utilities7logging7channelINtB5_13ChannelWriterNtNtB7_4sink8NullSinkE3newBb_
FNDA:4,_RNvMs0_NtNtNtCs35aDzIjzncu_6hermes9utilities7logging7channelINtB5_13ChannelWriterNtNtB7_4sink8NullSinkE8shutdownBb_
FNDA:6,_RNvMs0_NtNtNtCs35aDzIjzncu_6hermes9utilities7logging7channelINtB5_13ChannelWriterNtNtNtB7_4sink4file8FileSinkE3newBb_
FNDA:6,_RNvMs0_NtNtNtCs35aDzIjzncu_6hermes9utilities7logging7channelINtB5_13ChannelWriterNtNtNtB7_4sink4file8FileSinkE8new_fileBb_
FNDA:2,_RNvMs0_NtNtNtCs35aDzIjzncu_6hermes9utilities7logging7channelINtB5_13ChannelWriterNtNtNtB7_4sink4file8FileSinkE8shutdownBb_
FNDA:7,_RNvMs2_NtNtNtCs35aDzIjzncu_6hermes9utilities7logging7channelINtB5_6WorkerNtNtB5_5tests12TrackingSinkE4joinBb_
FNDA:7,_RNvMs2_NtNtNtCs35aDzIjzncu_6hermes9utilities7logging7channelINtB5_6WorkerNtNtB5_5tests12TrackingSinkE5spawnBb_
FNDA:3,_RNvMs2_NtNtNtCs35aDzIjzncu_6hermes9utilities7logging7channelINtB5_6WorkerNtNtB7_4sink8NullSinkE4joinBb_
FNDA:3,_RNvMs2_NtNtNtCs35aDzIjzncu_6hermes9utilities7logging7channelINtB5_6WorkerNtNtB7_4sink8NullSinkE5spawnBb_
FNDA:2,_RNvMs2_NtNtNtCs35aDzIjzncu_6hermes9utilities7logging7channelINtB5_6WorkerNtNtNtB7_4sink4file8FileSinkE4joinBb_
FNDA:6,_RNvMs2_NtNtNtCs35aDzIjzncu_6hermes9utilities7logging7channelINtB5_6WorkerNtNtNtB7_4sink4file8FileSinkE5spawnBb_
FNDA:6,_RNvXNtNtNtCs35aDzIjzncu_6hermes9utilities7logging7channelINtB2_13ChannelWriterNtNtB2_5tests12TrackingSinkENtNtCs4kUJL3MZFFz_4core5clone5Clone5cloneB8_
FNDA:1,_RNvXNtNtNtCs35aDzIjzncu_6hermes9utilities7logging7channelINtB2_13ChannelWriterNtNtB4_4sink8NullSinkENtNtCs4kUJL3MZFFz_4core5clone5Clone5cloneB8_
FNDA:1,_RNvXNtNtNtCs35aDzIjzncu_6hermes9utilities7logging7channelINtB2_13ChannelWriterNtNtNtB4_4sink4file8FileSinkENtNtCs4kUJL3MZFFz_4core5clone5Clone5cloneB8_
FNDA:5,_RNvXs1_NtNtNtCs35aDzIjzncu_6hermes9utilities7logging7channelINtB5_13ChannelWriterNtNtB5_5tests12TrackingSinkENtNtCsaa59N1qzrfe_3std2io5Write5flushBb_
FNDA:230,_RNvXs1_NtNtNtCs35aDzIjzncu_6hermes9utilities7logging7channelINtB5_13ChannelWriterNtNtB5_5tests12TrackingSinkENtNtCsaa59N1qzrfe_3std2io5Write5writeBb_
FNDA:1,_RNvXs1_NtNtNtCs35aDzIjzncu_6hermes9utilities7logging7channelINtB5_13ChannelWriterNtNtB7_4sink8NullSinkENtNtCsaa59N1qzrfe_3std2io5Write5flushBb_
FNDA:4,_RNvXs1_NtNtNtCs35aDzIjzncu_6hermes9utilities7logging7channelINtB5_13ChannelWriterNtNtB7_4sink8NullSinkENtNtCsaa59N1qzrfe_3std2io5Write5writeBb_
FNDA:2,_RNvXs1_NtNtNtCs35aDzIjzncu_6hermes9utilities7logging7channelINtB5_13ChannelWriterNtNtNtB7_4sink4file8FileSinkENtNtCsaa59N1qzrfe_3std2io5Write5flushBb_
FNDA:3,_RNvXs1_NtNtNtCs35aDzIjzncu_6hermes9utilities7logging7channelINtB5_13ChannelWriterNtNtNtB7_4sink4file8FileSinkENtNtCsaa59N1qzrfe_3std2io5Write5writeBb_
FNF:37
FNH:25
DA:33,8
DA:34,8
DA:35,8
DA:36,8
DA:37,8
DA:38,8
DA:42,0
DA:43,0
DA:44,0
DA:45,0
DA:46,0
DA:54,16
DA:55,16
DA:58,16
DA:60,16
DA:61,16
DA:62,16
DA:63,16
DA:64,16
DA:67,6
DA:68,6
DA:69,6
DA:71,6
DA:72,6
DA:75,0
DA:76,0
DA:77,0
DA:79,0
DA:80,0
DA:85,13
DA:87,13
DA:90,13
DA:91,13
DA:92,12
DA:93,12
DA:94,12
DA:95,13
DA:99,237
DA:102,237
DA:106,237
DA:107,236
DA:111,1
DA:114,237
DA:116,8
DA:117,8
DA:118,8
DA:121,0
DA:124,8
DA:134,16
DA:135,16
DA:136,16
DA:137,16
DA:138,16
DA:142,277
DA:144,12
DA:145,0
DA:148,12
DA:149,2
DA:150,0
DA:151,2
DA:152,2
DA:153,10
DA:154,12
DA:155,12
DA:160,265
DA:161,256
DA:164,5
DA:165,1
DA:166,0
DA:167,1
DA:168,1
DA:169,4
DA:170,5
DA:174,4
DA:175,0
DA:176,0
DA:177,0
DA:178,0
DA:179,4
DA:180,4
DA:181,4
DA:187,256
DA:188,236
DA:189,236
DA:192,236
DA:193,3
DA:194,0
DA:195,3
DA:196,3
DA:197,233
DA:201,8
DA:202,7
DA:203,0
DA:204,7
DA:205,7
DA:206,1
DA:207,8
DA:208,0
DA:209,8
DA:211,12
DA:212,12
DA:213,12
DA:218,16
DA:219,0
DA:220,0
DA:221,0
DA:222,16
DA:223,16
DA:224,0
DA:225,16
DA:226,16
DA:228,16
DA:229,16
DA:230,16
DA:231,16
DA:232,16
DA:234,12
DA:235,12
DA:236,12
DA:245,0
DA:246,0
DA:247,0
DA:251,0
DA:252,0
DA:253,0
DA:254,0
DA:255,0
DA:257,0
DA:258,0
DA:259,0
DA:261,0
DA:263,0
DA:264,0
DA:265,0
DA:266,0
DA:267,0
DA:269,0
DA:270,0
DA:271,0
DA:273,0
DA:282,0
DA:283,0
DA:284,0
DA:288,0
DA:289,0
DA:290,0
DA:291,0
DA:292,0
DA:293,0
DA:294,0
DA:296,0
DA:297,0
DA:298,0
DA:299,0
DA:300,0
DA:301,0
DA:302,0
DA:320,7
DA:321,7
DA:322,7
DA:323,7
DA:324,7
DA:325,7
DA:327,5
DA:328,5
DA:329,5
DA:331,2
DA:332,2
DA:333,2
DA:337,8
DA:338,8
DA:339,8
DA:340,8
DA:342,19
DA:343,19
DA:344,19
DA:345,19
DA:349,1
DA:350,1
DA:351,1
DA:353,1
DA:354,1
DA:355,1
DA:356,1
DA:357,1
DA:360,1
DA:361,1
DA:362,1
DA:364,1
DA:365,1
DA:366,1
DA:369,1
DA:370,1
DA:371,1
DA:373,100
DA:374,100
DA:375,100
DA:376,100
DA:377,100
DA:379,1
DA:380,1
DA:381,1
DA:383,1
DA:384,1
DA:385,1
DA:388,1
DA:389,1
DA:390,1
DA:392,25
DA:393,25
DA:394,25
DA:395,25
DA:396,25
DA:398,1
DA:399,1
DA:400,1
DA:402,1
DA:403,1
DA:404,1
DA:407,1
DA:408,1
DA:409,1
DA:411,1
DA:412,1
DA:413,1
DA:415,1
DA:416,1
DA:418,1
DA:419,1
DA:422,1
DA:423,1
DA:424,1
DA:426,1
DA:427,1
DA:429,1
DA:430,1
DA:432,1
DA:433,1
DA:434,1
DA:437,1
DA:438,1
DA:439,1
DA:441,1
DA:444,1
DA:445,1
DA:449,1
DA:450,1
DA:452,1
DA:453,1
DA:456,1
DA:457,1
DA:458,1
DA:459,1
DA:461,1
DA:462,1
DA:464,1
DA:465,1
DA:466,1
DA:468,1
DA:469,1
DA:470,1
DA:473,1
DA:474,1
DA:475,1
DA:476,1
DA:478,1
DA:482,1
DA:483,1
DA:484,1
DA:487,1
DA:490,1
DA:491,1
DA:492,1
DA:494,1
DA:495,5
DA:496,5
DA:497,5
DA:498,100
DA:499,100
DA:500,100
DA:501,100
DA:502,5
DA:503,5
DA:506,5
DA:507,5
DA:508,5
DA:510,1
DA:511,1
DA:512,1
DA:514,1
DA:515,1
DA:516,1
BRF:0
BRH:0
LF:298
LH:224
end_of_record
SF:/var/www/hermes/src/utilities/logging/file.rs
FN:170,_RINvNtNtNtCs35aDzIjzncu_6hermes9utilities7logging4file10size_basedpEB8_
FN:128,_RNvMNtNtNtCs35aDzIjzncu_6hermes9utilities7logging4fileNtB2_21SizeBasedFileAppender8max_size
FN:162,_RNvXs0_NtNtNtCs35aDzIjzncu_6hermes9utilities7logging4fileNtB5_21SizeBasedFileAppenderNtNtNtCsgBiT4MaOqpq_18tracing_subscriber3fmt6writer10MakeWriter11make_writer
FN:38,_RINvMNtNtNtCs35aDzIjzncu_6hermes9utilities7logging4fileNtB3_21SizeBasedFileAppender3newRNtNtCsaa59N1qzrfe_3std4path7PathBufEB9_
FN:38,_RINvMNtNtNtCs35aDzIjzncu_6hermes9utilities7logging4fileNtB3_21SizeBasedFileAppender3newRNtNtCsauO83Ko6oyK_5alloc6string6StringEB9_
FN:249,_RNvNtNtNtNtCs35aDzIjzncu_6hermes9utilities7logging4file5testss_19test_zero_max_files
FN:221,_RNvNtNtNtNtCs35aDzIjzncu_6hermes9utilities7logging4file5testss_20test_max_files_limit
FN:186,_RNvNtNtNtNtCs35aDzIjzncu_6hermes9utilities7logging4file5testss_24test_size_based_rotation
FN:123,_RNvMNtNtNtCs35aDzIjzncu_6hermes9utilities7logging4fileNtB2_21SizeBasedFileAppender12current_size
FN:116,_RNvMNtNtNtCs35aDzIjzncu_6hermes9utilities7logging4fileNtB2_21SizeBasedFileAppender12rotated_path
FN:75,_RNvMNtNtNtCs35aDzIjzncu_6hermes9utilities7logging4fileNtB2_21SizeBasedFileAppender16perform_rotation
FN:58,_RNvMNtNtNtCs35aDzIjzncu_6hermes9utilities7logging4fileNtB2_21SizeBasedFileAppender16rotate_if_needed
FN:150,_RNvXs_NtNtNtCs35aDzIjzncu_6hermes9utilities7logging4fileNtB4_21SizeBasedFileAppenderNtNtCsaa59N1qzrfe_3std2io5Write5flush
FN:134,_RNvXs_NtNtNtCs35aDzIjzncu_6hermes9utilities7logging4fileNtB4_21SizeBasedFileAppenderNtNtCsaa59N1qzrfe_3std2io5Write5write
FNDA:0,_RINvNtNtNtCs35aDzIjzncu_6hermes9utilities7logging4file10size_basedpEB8_
FNDA:0,_RNvMNtNtNtCs35aDzIjzncu_6hermes9utilities7logging4fileNtB2_21SizeBasedFileAppender8max_size
FNDA:0,_RNvXs0_NtNtNtCs35aDzIjzncu_6hermes9utilities7logging4fileNtB5_21SizeBasedFileAppenderNtNtNtCsgBiT4MaOqpq_18tracing_subscriber3fmt6writer10MakeWriter11make_writer
FNDA:11,_RINvMNtNtNtCs35aDzIjzncu_6hermes9utilities7logging4fileNtB3_21SizeBasedFileAppender3newRNtNtCsaa59N1qzrfe_3std4path7PathBufEB9_
FNDA:0,_RINvMNtNtNtCs35aDzIjzncu_6hermes9utilities7logging4fileNtB3_21SizeBasedFileAppender3newRNtNtCsauO83Ko6oyK_5alloc6string6StringEB9_
FNDA:1,_RNvNtNtNtNtCs35aDzIjzncu_6hermes9utilities7logging4file5testss_19test_zero_max_files
FNDA:1,_RNvNtNtNtNtCs35aDzIjzncu_6hermes9utilities7logging4file5testss_20test_max_files_limit
FNDA:1,_RNvNtNtNtNtCs35aDzIjzncu_6hermes9utilities7logging4file5testss_24test_size_based_rotation
FNDA:3,_RNvMNtNtNtCs35aDzIjzncu_6hermes9utilities7logging4fileNtB2_21SizeBasedFileAppender12current_size
FNDA:12,_RNvMNtNtNtCs35aDzIjzncu_6hermes9utilities7logging4fileNtB2_21SizeBasedFileAppender12rotated_path
FNDA:6,_RNvMNtNtNtCs35aDzIjzncu_6hermes9utilities7logging4fileNtB2_21SizeBasedFileAppender16perform_rotation
FNDA:15,_RNvMNtNtNtCs35aDzIjzncu_6hermes9utilities7logging4fileNtB2_21SizeBasedFileAppender16rotate_if_needed
FNDA:16,_RNvXs_NtNtNtCs35aDzIjzncu_6hermes9utilities7logging4fileNtB4_21SizeBasedFileAppenderNtNtCsaa59N1qzrfe_3std2io5Write5flush
FNDA:15,_RNvXs_NtNtNtCs35aDzIjzncu_6hermes9utilities7logging4fileNtB4_21SizeBasedFileAppenderNtNtCsaa59N1qzrfe_3std2io5Write5write
FNF:13
FNH:10
DA:38,11
DA:39,11
DA:42,11
DA:45,11
DA:46,11
DA:48,11
DA:49,11
DA:50,11
DA:51,11
DA:52,11
DA:53,11
DA:54,11
DA:55,11
DA:58,15
DA:59,15
DA:61,15
DA:62,6
DA:63,9
DA:65,15
DA:66,15
DA:75,6
DA:77,6
DA:80,6
DA:81,5
DA:82,5
DA:83,5
DA:86,6
DA:87,1
DA:88,1
DA:89,1
DA:90,1
DA:91,1
DA:92,1
DA:95,6
DA:96,5
DA:97,5
DA:98,1
DA:99,1
DA:100,1
DA:101,1
DA:104,6
DA:105,6
DA:106,6
DA:107,6
DA:109,6
DA:110,6
DA:112,6
DA:113,6
DA:116,12
DA:117,12
DA:118,12
DA:119,12
DA:120,12
DA:123,3
DA:124,3
DA:125,3
DA:128,0
DA:129,0
DA:130,0
DA:134,15
DA:136,15
DA:139,15
DA:140,15
DA:141,0
DA:145,15
DA:147,15
DA:148,15
DA:150,16
DA:151,16
DA:152,16
DA:153,0
DA:155,16
DA:162,0
DA:165,0
DA:170,0
DA:171,0
DA:172,0
DA:173,0
DA:174,0
DA:175,0
DA:176,0
DA:186,1
DA:187,1
DA:188,1
DA:191,1
DA:194,1
DA:195,1
DA:196,1
DA:197,1
DA:200,1
DA:201,1
DA:202,1
DA:203,1
DA:206,1
DA:209,1
DA:212,1
DA:213,1
DA:216,1
DA:217,1
DA:218,1
DA:221,1
DA:222,1
DA:223,1
DA:226,1
DA:229,5
DA:230,5
DA:231,5
DA:232,5
DA:233,5
DA:234,5
DA:235,5
DA:238,1
DA:239,1
DA:240,1
DA:242,1
DA:243,1
DA:244,1
DA:246,1
DA:249,1
DA:250,1
DA:251,1
DA:254,1
DA:257,1
DA:260,1
DA:261,1
DA:262,1
DA:265,1
DA:266,1
DA:267,1
DA:271,1
DA:272,1
DA:273,1
DA:274,1
BRF:0
BRH:0
LF:133
LH:119
end_of_record
SF:/var/www/hermes/src/utilities/logging/format.rs
FN:11,_RNvXNtNtNtCs35aDzIjzncu_6hermes9utilities7logging6formatNtB2_9LogFormatNtNtCs4kUJL3MZFFz_4core3fmt7Display3fmt
FN:34,_RNvXs0_NtNtNtCs35aDzIjzncu_6hermes9utilities7logging6formatNtB5_9LogFormatINtNtCs4kUJL3MZFFz_4core7convert4FromNtNtCsauO83Ko6oyK_5alloc6string6StringE4from
FN:40,_RNvXs1_NtNtNtCs35aDzIjzncu_6hermes9utilities7logging6formatNtB5_9LogFormatNtNtCsjJN1CJkPTUm_14nvim_oxi_types10conversion10FromObject11from_object
FN:22,_RNvXs_NtNtNtCs35aDzIjzncu_6hermes9utilities7logging6formatNtB4_9LogFormatINtNtCs4kUJL3MZFFz_4core7convert4FromReE4from
FNDA:0,_RNvXNtNtNtCs35aDzIjzncu_6hermes9utilities7logging6formatNtB2_9LogFormatNtNtCs4kUJL3MZFFz_4core3fmt7Display3fmt
FNDA:0,_RNvXs0_NtNtNtCs35aDzIjzncu_6hermes9utilities7logging6formatNtB5_9LogFormatINtNtCs4kUJL3MZFFz_4core7convert4FromNtNtCsauO83Ko6oyK_5alloc6string6StringE4from
FNDA:0,_RNvXs1_NtNtNtCs35aDzIjzncu_6hermes9utilities7logging6formatNtB5_9LogFormatNtNtCsjJN1CJkPTUm_14nvim_oxi_types10conversion10FromObject11from_object
FNDA:256,_RNvXs_NtNtNtCs35aDzIjzncu_6hermes9utilities7logging6formatNtB4_9LogFormatINtNtCs4kUJL3MZFFz_4core7convert4FromReE4from
FNF:4
FNH:1
DA:11,0
DA:12,0
DA:13,0
DA:14,0
DA:15,0
DA:16,0
DA:18,0
DA:22,256
DA:23,256
DA:24,256
DA:25,256
DA:26,256
DA:27,256
DA:28,256
DA:30,256
DA:34,0
DA:35,0
DA:36,0
DA:40,0
DA:41,0
DA:42,0
DA:43,0
DA:44,0
DA:46,0
DA:47,0
DA:48,0
DA:50,0
BRF:0
BRH:0
LF:27
LH:8
end_of_record
SF:/var/www/hermes/src/utilities/logging/level.rs
FN:17,_RNvXNtNtNtCs35aDzIjzncu_6hermes9utilities7logging5levelNtNtNtCsgBiT4MaOqpq_18tracing_subscriber6filter3env9EnvFilterINtNtCs4kUJL3MZFFz_4core7convert4FromNtB2_8LogLevelE4from
FN:39,_RNvXs0_NtNtNtCs35aDzIjzncu_6hermes9utilities7logging5levelNtB5_8LogLevelNtNtCs4kUJL3MZFFz_4core3fmt7Display3fmt
FN:52,_RNvXs1_NtNtNtCs35aDzIjzncu_6hermes9utilities7logging5levelNtNtCs88ZoVaZbnrV_12tracing_core8metadata11LevelFilterINtNtCs4kUJL3MZFFz_4core7convert4FromNtB5_8LogLevelE4from
FN:65,_RNvXs2_NtNtNtCs35aDzIjzncu_6hermes9utilities7logging5levelNtNtCs88ZoVaZbnrV_12tracing_core8metadata5LevelINtNtCs4kUJL3MZFFz_4core7convert4FromNtB5_8LogLevelE4from
FN:26,_RNvXs_NtNtNtCs35aDzIjzncu_6hermes9utilities7logging5levelNtNtNtCsbelYPzbIlOh_12nvim_oxi_api5types9log_level8LogLevelINtNtCs4kUJL3MZFFz_4core7convert4FromNtB4_8LogLevelE4from
FN:78,_RNvXs3_NtNtNtCs35aDzIjzncu_6hermes9utilities7logging5levelNtB5_8LogLevelINtNtCs4kUJL3MZFFz_4core7convert4FromxE4from
FN:91,_RNvXs4_NtNtNtCs35aDzIjzncu_6hermes9utilities7logging5levelNtB5_8LogLevelINtNtCs4kUJL3MZFFz_4core7convert4FromReE4from
FN:104,_RNvXs5_NtNtNtCs35aDzIjzncu_6hermes9utilities7logging5levelNtB5_8LogLevelINtNtCs4kUJL3MZFFz_4core7convert4FromNtNtCsauO83Ko6oyK_5alloc6string6StringE4from
FN:110,_RNvXs6_NtNtNtCs35aDzIjzncu_6hermes9utilities7logging5levelNtB5_8LogLevelNtNtCsjJN1CJkPTUm_14nvim_oxi_types10conversion10FromObject11from_object
FNDA:0,_RNvXNtNtNtCs35aDzIjzncu_6hermes9utilities7logging5levelNtNtNtCsgBiT4MaOqpq_18tracing_subscriber6filter3env9EnvFilterINtNtCs4kUJL3MZFFz_4core7convert4FromNtB2_8LogLevelE4from
FNDA:0,_RNvXs0_NtNtNtCs35aDzIjzncu_6hermes9utilities7logging5levelNtB5_8LogLevelNtNtCs4kUJL3MZFFz_4core3fmt7Display3fmt
FNDA:2,_RNvXs1_NtNtNtCs35aDzIjzncu_6hermes9utilities7logging5levelNtNtCs88ZoVaZbnrV_12tracing_core8metadata11LevelFilterINtNtCs4kUJL3MZFFz_4core7convert4FromNtB5_8LogLevelE4from
FNDA:0,_RNvXs2_NtNtNtCs35aDzIjzncu_6hermes9utilities7logging5levelNtNtCs88ZoVaZbnrV_12tracing_core8metadata5LevelINtNtCs4kUJL3MZFFz_4core7convert4FromNtB5_8LogLevelE4from
FNDA:0,_RNvXs_NtNtNtCs35aDzIjzncu_6hermes9utilities7logging5levelNtNtNtCsbelYPzbIlOh_12nvim_oxi_api5types9log_level8LogLevelINtNtCs4kUJL3MZFFz_4core7convert4FromNtB4_8LogLevelE4from
FNDA:263,_RNvXs3_NtNtNtCs35aDzIjzncu_6hermes9utilities7logging5levelNtB5_8LogLevelINtNtCs4kUJL3MZFFz_4core7convert4FromxE4from
FNDA:262,_RNvXs4_NtNtNtCs35aDzIjzncu_6hermes9utilities7logging5levelNtB5_8LogLevelINtNtCs4kUJL3MZFFz_4core7convert4FromReE4from
FNDA:0,_RNvXs5_NtNtNtCs35aDzIjzncu_6hermes9utilities7logging5levelNtB5_8LogLevelINtNtCs4kUJL3MZFFz_4core7convert4FromNtNtCsauO83Ko6oyK_5alloc6string6StringE4from
FNDA:0,_RNvXs6_NtNtNtCs35aDzIjzncu_6hermes9utilities7logging5levelNtB5_8LogLevelNtNtCsjJN1CJkPTUm_14nvim_oxi_types10conversion10FromObject11from_object
FNF:9
FNH:3
DA:17,0
DA:18,0
DA:21,0
DA:22,0
DA:26,0
DA:27,0
DA:28,0
DA:29,0
DA:30,0
DA:31,0
DA:32,0
DA:33,0
DA:35,0
DA:39,0
DA:40,0
DA:41,0
DA:42,0
DA:43,0
DA:44,0
DA:45,0
DA:46,0
DA:48,0
DA:52,2
DA:53,2
DA:54,1
DA:55,0
DA:56,0
DA:57,0
DA:58,0
DA:59,1
DA:61,2
DA:65,0
DA:66,0
DA:67,0
DA:68,0
DA:69,0
DA:70,0
DA:71,0
DA:72,0
DA:74,0
DA:78,263
DA:79,263
DA:80,1
DA:81,1
DA:82,1
DA:83,1
DA:84,1
DA:85,258
DA:87,263
DA:91,262
DA:92,262
DA:93,262
DA:94,261
DA:95,260
DA:96,259
DA:97,258
DA:98,257
DA:100,262
DA:104,0
DA:105,0
DA:106,0
DA:110,0
DA:111,0
DA:112,0
DA:113,0
DA:114,0
DA:115,0
DA:116,0
DA:118,0
DA:119,0
DA:120,0
DA:122,0
BRF:0
BRH:0
LF:72
LH:23
end_of_record
SF:/var/www/hermes/src/utilities/logging/mod.rs
FN:43,_RINvMNtNtCs35aDzIjzncu_6hermes9utilities7loggingNtB3_6Logger10base_layerFENtNtNtCsaa59N1qzrfe_3std2io5stdio6StdoutEB7_
FN:43,_RINvMNtNtCs35aDzIjzncu_6hermes9utilities7loggingNtB3_6Logger10base_layerINtNtB3_6writer17LevelFilterWriterNtNtB1b_12notification12NotifyWriterEEB7_
FN:43,_RINvMNtNtCs35aDzIjzncu_6hermes9utilities7loggingNtB3_6Logger10base_layerINtNtB3_6writer17LevelFilterWriterNtNtB1b_4file10FileWriterEEB7_
FN:43,_RINvMNtNtCs35aDzIjzncu_6hermes9utilities7loggingNtB3_6Logger10base_layerINtNtB3_6writer17LevelFilterWriterNtNtB1b_7message13MessageWriterEEB7_
FN:108,_RNCNvMNtNtCs35aDzIjzncu_6hermes9utilities7loggingNtB4_6Logger10all_layers0B8_
FN:121,_RNCNvMNtNtCs35aDzIjzncu_6hermes9utilities7loggingNtB4_6Logger11inititalize0B8_
FN:139,_RNCNvMNtNtCs35aDzIjzncu_6hermes9utilities7loggingNtB4_6Logger9configure0B8_
FN:93,_RNvMNtNtCs35aDzIjzncu_6hermes9utilities7loggingNtB2_6Logger10all_layers
FN:78,_RNvMNtNtCs35aDzIjzncu_6hermes9utilities7loggingNtB2_6Logger10file_layer
FN:115,_RNvMNtNtCs35aDzIjzncu_6hermes9utilities7loggingNtB2_6Logger11inititalize
FN:64,_RNvMNtNtCs35aDzIjzncu_6hermes9utilities7loggingNtB2_6Logger11stdio_layer
FN:73,_RNvMNtNtCs35aDzIjzncu_6hermes9utilities7loggingNtB2_6Logger13message_layer
FN:68,_RNvMNtNtCs35aDzIjzncu_6hermes9utilities7loggingNtB2_6Logger18notification_layer
FN:131,_RNvMNtNtCs35aDzIjzncu_6hermes9utilities7loggingNtB2_6Logger9configure
FN:203,_RNvNtNtNtCs35aDzIjzncu_6hermes9utilities7logging5testss_32test_log_level_into_level_filter
FN:168,_RNvNtNtNtCs35aDzIjzncu_6hermes9utilities7logging5testss_36test_log_level_from_i64_known_values
FN:186,_RNvNtNtNtCs35aDzIjzncu_6hermes9utilities7logging5testss_36test_log_level_from_str_known_values
FN:205,_RNCNvNtNtNtCs35aDzIjzncu_6hermes9utilities7logging5testss_32test_log_level_into_level_filter0B9_
FN:170,_RNCNvNtNtNtCs35aDzIjzncu_6hermes9utilities7logging5testss_36test_log_level_from_i64_known_values0B9_
FN:188,_RNCNvNtNtNtCs35aDzIjzncu_6hermes9utilities7logging5testss_36test_log_level_from_str_known_values0B9_
FNDA:0,_RINvMNtNtCs35aDzIjzncu_6hermes9utilities7loggingNtB3_6Logger10base_layerFENtNtNtCsaa59N1qzrfe_3std2io5stdio6StdoutEB7_
FNDA:0,_RINvMNtNtCs35aDzIjzncu_6hermes9utilities7loggingNtB3_6Logger10base_layerINtNtB3_6writer17LevelFilterWriterNtNtB1b_12notification12NotifyWriterEEB7_
FNDA:0,_RINvMNtNtCs35aDzIjzncu_6hermes9utilities7loggingNtB3_6Logger10base_layerINtNtB3_6writer17LevelFilterWriterNtNtB1b_4file10FileWriterEEB7_
FNDA:0,_RINvMNtNtCs35aDzIjzncu_6hermes9utilities7loggingNtB3_6Logger10base_layerINtNtB3_6writer17LevelFilterWriterNtNtB1b_7message13MessageWriterEEB7_
FNDA:0,_RNCNvMNtNtCs35aDzIjzncu_6hermes9utilities7loggingNtB4_6Logger10all_layers0B8_
FNDA:0,_RNCNvMNtNtCs35aDzIjzncu_6hermes9utilities7loggingNtB4_6Logger11inititalize0B8_
FNDA:0,_RNCNvMNtNtCs35aDzIjzncu_6hermes9utilities7loggingNtB4_6Logger9configure0B8_
FNDA:0,_RNvMNtNtCs35aDzIjzncu_6hermes9utilities7loggingNtB2_6Logger10all_layers
FNDA:0,_RNvMNtNtCs35aDzIjzncu_6hermes9utilities7loggingNtB2_6Logger10file_layer
FNDA:0,_RNvMNtNtCs35aDzIjzncu_6hermes9utilities7loggingNtB2_6Logger11inititalize
FNDA:0,_RNvMNtNtCs35aDzIjzncu_6hermes9utilities7loggingNtB2_6Logger11stdio_layer
FNDA:0,_RNvMNtNtCs35aDzIjzncu_6hermes9utilities7loggingNtB2_6Logger13message_layer
FNDA:0,_RNvMNtNtCs35aDzIjzncu_6hermes9utilities7loggingNtB2_6Logger18notification_layer
FNDA:0,_RNvMNtNtCs35aDzIjzncu_6hermes9utilities7loggingNtB2_6Logger9configure
FNDA:1,_RNvNtNtNtCs35aDzIjzncu_6hermes9utilities7logging5testss_32test_log_level_into_level_filter
FNDA:1,_RNvNtNtNtCs35aDzIjzncu_6hermes9utilities7logging5testss_36test_log_level_from_i64_known_values
FNDA:1,_RNvNtNtNtCs35aDzIjzncu_6hermes9utilities7logging5testss_36test_log_level_from_str_known_values
FNDA:2,_RNCNvNtNtNtCs35aDzIjzncu_6hermes9utilities7logging5testss_32test_log_level_into_level_filter0B9_
FNDA:7,_RNCNvNtNtNtCs35aDzIjzncu_6hermes9utilities7logging5testss_36test_log_level_from_i64_known_values0B9_
FNDA:6,_RNCNvNtNtNtCs35aDzIjzncu_6hermes9utilities7logging5testss_36test_log_level_from_str_known_values0B9_
FNF:17
FNH:6
DA:43,0
DA:44,0
DA:45,0
DA:46,0
DA:47,0
DA:48,0
DA:50,0
DA:51,0
DA:52,0
DA:53,0
DA:54,0
DA:55,0
DA:56,0
DA:57,0
DA:58,0
DA:59,0
DA:60,0
DA:62,0
DA:64,0
DA:65,0
DA:66,0
DA:68,0
DA:69,0
DA:70,0
DA:71,0
DA:73,0
DA:74,0
DA:75,0
DA:76,0
DA:78,0
DA:79,0
DA:81,0
DA:83,0
DA:84,0
DA:86,0
DA:87,0
DA:88,0
DA:89,0
DA:91,0
DA:93,0
DA:94,0
DA:95,0
DA:96,0
DA:97,0
DA:98,0
DA:99,0
DA:100,0
DA:101,0
DA:102,0
DA:103,0
DA:104,0
DA:108,0
DA:109,0
DA:110,0
DA:112,0
DA:113,0
DA:115,0
DA:116,0
DA:117,0
DA:119,0
DA:121,0
DA:122,0
DA:123,0
DA:124,0
DA:125,0
DA:126,0
DA:127,0
DA:128,0
DA:131,0
DA:132,0
DA:133,0
DA:134,0
DA:135,0
DA:136,0
DA:137,0
DA:138,0
DA:139,0
DA:140,0
DA:168,1
DA:169,1
DA:170,7
DA:172,1
DA:173,1
DA:174,1
DA:175,1
DA:176,1
DA:177,1
DA:178,1
DA:179,1
DA:182,1
DA:183,1
DA:186,1
DA:187,1
DA:188,6
DA:190,1
DA:191,1
DA:192,1
DA:193,1
DA:194,1
DA:195,1
DA:196,1
DA:199,1
DA:200,1
DA:203,1
DA:204,1
DA:205,2
DA:207,1
DA:209,1
DA:210,1
BRF:0
BRH:0
LF:115
LH:34
end_of_record
SF:/var/www/hermes/src/utilities/logging/sink/file.rs
FN:36,_RNvXs_NtNtNtNtCs35aDzIjzncu_6hermes9utilities7logging4sink4fileNtB4_8FileSinkNtB6_7LogSink11write_batch
FN:43,_RNvXs_NtNtNtNtCs35aDzIjzncu_6hermes9utilities7logging4sink4fileNtB4_8FileSinkNtB6_7LogSink5flush
FN:72,_RNvNtNtNtNtNtCs35aDzIjzncu_6hermes9utilities7logging4sink4file5testss_26test_file_sink_empty_batch
FN:55,_RNvNtNtNtNtNtCs35aDzIjzncu_6hermes9utilities7logging4sink4file5testss_26test_file_sink_write_batch
FN:25,_RINvMNtNtNtNtCs35aDzIjzncu_6hermes9utilities7logging4sink4fileNtB3_8FileSink3newRNtNtCsaa59N1qzrfe_3std4path7PathBufEBb_
FN:25,_RINvMNtNtNtNtCs35aDzIjzncu_6hermes9utilities7logging4sink4fileNtB3_8FileSink3newRNtNtCsauO83Ko6oyK_5alloc6string6StringEBb_
FNDA:5,_RNvXs_NtNtNtNtCs35aDzIjzncu_6hermes9utilities7logging4sink4fileNtB4_8FileSinkNtB6_7LogSink11write_batch
FNDA:16,_RNvXs_NtNtNtNtCs35aDzIjzncu_6hermes9utilities7logging4sink4fileNtB4_8FileSinkNtB6_7LogSink5flush
FNDA:1,_RNvNtNtNtNtNtCs35aDzIjzncu_6hermes9utilities7logging4sink4file5testss_26test_file_sink_empty_batch
FNDA:1,_RNvNtNtNtNtNtCs35aDzIjzncu_6hermes9utilities7logging4sink4file5testss_26test_file_sink_write_batch
FNDA:8,_RINvMNtNtNtNtCs35aDzIjzncu_6hermes9utilities7logging4sink4fileNtB3_8FileSink3newRNtNtCsaa59N1qzrfe_3std4path7PathBufEBb_
FNDA:0,_RINvMNtNtNtNtCs35aDzIjzncu_6hermes9utilities7logging4sink4fileNtB3_8FileSink3newRNtNtCsauO83Ko6oyK_5alloc6string6StringEBb_
FNF:5
FNH:5
DA:25,8
DA:26,8
DA:27,8
DA:28,8
DA:29,8
DA:30,8
DA:31,8
DA:32,8
DA:36,5
DA:37,5
DA:38,5
DA:40,5
DA:41,5
DA:43,16
DA:44,16
DA:45,16
DA:55,1
DA:56,1
DA:57,1
DA:59,1
DA:61,1
DA:63,1
DA:64,1
DA:66,1
DA:67,1
DA:68,1
DA:69,1
DA:72,1
DA:73,1
DA:74,1
DA:76,1
DA:78,1
DA:79,1
DA:81,1
DA:82,1
DA:83,1
BRF:0
BRH:0
LF:36
LH:36
end_of_record
SF:/var/www/hermes/src/utilities/logging/sink/mod.rs
FN:47,_RNvNtNtNtNtCs35aDzIjzncu_6hermes9utilities7logging4sink5testss_14test_null_sink
FN:31,_RNvXNtNtNtCs35aDzIjzncu_6hermes9utilities7logging4sinkNtB2_8NullSinkNtB2_7LogSink11write_batch
FN:35,_RNvXNtNtNtCs35aDzIjzncu_6hermes9utilities7logging4sinkNtB2_8NullSinkNtB2_7LogSink5flush
FNDA:1,_RNvNtNtNtNtCs35aDzIjzncu_6hermes9utilities7logging4sink5testss_14test_null_sink
FNDA:3,_RNvXNtNtNtCs35aDzIjzncu_6hermes9utilities7logging4sinkNtB2_8NullSinkNtB2_7LogSink11write_batch
FNDA:8,_RNvXNtNtNtCs35aDzIjzncu_6hermes9utilities7logging4sinkNtB2_8NullSinkNtB2_7LogSink5flush
FNF:3
FNH:3
DA:31,3
DA:32,3
DA:33,3
DA:35,8
DA:36,8
DA:37,8
DA:47,1
DA:48,1
DA:49,1
DA:50,1
DA:51,1
BRF:0
BRH:0
LF:11
LH:11
end_of_record
SF:/var/www/hermes/src/utilities/logging/writer/file.rs
FN:29,_RINvMNtNtNtNtCs35aDzIjzncu_6hermes9utilities7logging6writer4fileNtB3_14LazyFileWriter3newpEBb_
FN:46,_RNCNvMNtNtNtNtCs35aDzIjzncu_6hermes9utilities7logging6writer4fileNtB4_14LazyFileWriter11get_or_init0Bc_
FN:55,_RNCNvMNtNtNtNtCs35aDzIjzncu_6hermes9utilities7logging6writer4fileNtB4_14LazyFileWriter13dropped_count0Bc_
FN:45,_RNvMNtNtNtNtCs35aDzIjzncu_6hermes9utilities7logging6writer4fileNtB2_14LazyFileWriter11get_or_init
FN:53,_RNvMNtNtNtNtCs35aDzIjzncu_6hermes9utilities7logging6writer4fileNtB2_14LazyFileWriter13dropped_count
FN:61,_RNvMNtNtNtNtCs35aDzIjzncu_6hermes9utilities7logging6writer4fileNtB2_14LazyFileWriter8shutdown
FN:79,_RNvXs1_NtNtNtNtCs35aDzIjzncu_6hermes9utilities7logging6writer4fileNtB5_14LazyFileWriterNtNtNtCsgBiT4MaOqpq_18tracing_subscriber3fmt6writer10MakeWriter11make_writer
FN:140,_RNvXs6_NtNtNtNtCs35aDzIjzncu_6hermes9utilities7logging6writer4fileNtB5_10FileWriterNtNtNtCsgBiT4MaOqpq_18tracing_subscriber3fmt6writer10MakeWriter11make_writer
FN:92,_RINvMs2_NtNtNtNtCs35aDzIjzncu_6hermes9utilities7logging6writer4fileNtB6_10FileWriter3newRNtNtCsaa59N1qzrfe_3std4path7PathBufEBe_
FN:92,_RINvMs2_NtNtNtNtCs35aDzIjzncu_6hermes9utilities7logging6writer4fileNtB6_10FileWriter3newRNtNtCsauO83Ko6oyK_5alloc6string6StringEBe_
FN:152,_RNvNtNtNtNtNtCs35aDzIjzncu_6hermes9utilities7logging6writer4file5testss_20test_file_writer_new
FN:194,_RNvNtNtNtNtNtCs35aDzIjzncu_6hermes9utilities7logging6writer4file5testss_22test_file_writer_clone
FN:161,_RNvNtNtNtNtNtCs35aDzIjzncu_6hermes9utilities7logging6writer4file5testss_22test_file_writer_write
FN:227,_RNvNtNtNtNtNtCs35aDzIjzncu_6hermes9utilities7logging6writer4file5testss_42test_file_writer_flush_triggers_file_write
FN:206,_RNvNtNtNtNtNtCs35aDzIjzncu_6hermes9utilities7logging6writer4file5testss_43test_file_writer_shutdown_terminates_worker
FN:185,_RNvNtNtNtNtNtCs35aDzIjzncu_6hermes9utilities7logging6writer4file5testss_45test_file_writer_dropped_count_initially_zero
FN:102,_RNvMs2_NtNtNtNtCs35aDzIjzncu_6hermes9utilities7logging6writer4fileNtB5_10FileWriter13dropped_count
FN:106,_RNvMs2_NtNtNtNtCs35aDzIjzncu_6hermes9utilities7logging6writer4fileNtB5_10FileWriter8shutdown
FN:122,_RNvXs3_NtNtNtNtCs35aDzIjzncu_6hermes9utilities7logging6writer4fileNtB5_10FileWriterNtNtCsaa59N1qzrfe_3std2io5Write5flush
FN:112,_RNvXs3_NtNtNtNtCs35aDzIjzncu_6hermes9utilities7logging6writer4fileNtB5_10FileWriterNtNtCsaa59N1qzrfe_3std2io5Write5write
FNDA:0,_RINvMNtNtNtNtCs35aDzIjzncu_6hermes9utilities7logging6writer4fileNtB3_14LazyFileWriter3newpEBb_
FNDA:0,_RNCNvMNtNtNtNtCs35aDzIjzncu_6hermes9utilities7logging6writer4fileNtB4_14LazyFileWriter11get_or_init0Bc_
FNDA:0,_RNCNvMNtNtNtNtCs35aDzIjzncu_6hermes9utilities7logging6writer4fileNtB4_14LazyFileWriter13dropped_count0Bc_
FNDA:0,_RNvMNtNtNtNtCs35aDzIjzncu_6hermes9utilities7logging6writer4fileNtB2_14LazyFileWriter11get_or_init
FNDA:0,_RNvMNtNtNtNtCs35aDzIjzncu_6hermes9utilities7logging6writer4fileNtB2_14LazyFileWriter13dropped_count
FNDA:0,_RNvMNtNtNtNtCs35aDzIjzncu_6hermes9utilities7logging6writer4fileNtB2_14LazyFileWriter8shutdown
FNDA:0,_RNvXs1_NtNtNtNtCs35aDzIjzncu_6hermes9utilities7logging6writer4fileNtB5_14LazyFileWriterNtNtNtCsgBiT4MaOqpq_18tracing_subscriber3fmt6writer10MakeWriter11make_writer
FNDA:0,_RNvXs6_NtNtNtNtCs35aDzIjzncu_6hermes9utilities7logging6writer4fileNtB5_10FileWriterNtNtNtCsgBiT4MaOqpq_18tracing_subscriber3fmt6writer10MakeWriter11make_writer
FNDA:6,_RINvMs2_NtNtNtNtCs35aDzIjzncu_6hermes9utilities7logging6writer4fileNtB6_10FileWriter3newRNtNtCsaa59N1qzrfe_3std4path7PathBufEBe_
FNDA:0,_RINvMs2_NtNtNtNtCs35aDzIjzncu_6hermes9utilities7logging6writer4fileNtB6_10FileWriter3newRNtNtCsauO83Ko6oyK_5alloc6string6StringEBe_
FNDA:1,_RNvNtNtNtNtNtCs35aDzIjzncu_6hermes9utilities7logging6writer4file5testss_20test_file_writer_new
FNDA:1,_RNvNtNtNtNtNtCs35aDzIjzncu_6hermes9utilities7logging6writer4file5testss_22test_file_writer_clone
FNDA:1,_RNvNtNtNtNtNtCs35aDzIjzncu_6hermes9utilities7logging6writer4file5testss_22test_file_writer_write
FNDA:1,_RNvNtNtNtNtNtCs35aDzIjzncu_6hermes9utilities7logging6writer4file5testss_42test_file_writer_flush_triggers_file_write
FNDA:1,_RNvNtNtNtNtNtCs35aDzIjzncu_6hermes9utilities7logging6writer4file5testss_43test_file_writer_shutdown_terminates_worker
FNDA:1,_RNvNtNtNtNtNtCs35aDzIjzncu_6hermes9utilities7logging6writer4file5testss_45test_file_writer_dropped_count_initially_zero
FNDA:3,_RNvMs2_NtNtNtNtCs35aDzIjzncu_6hermes9utilities7logging6writer4fileNtB5_10FileWriter13dropped_count
FNDA:2,_RNvMs2_NtNtNtNtCs35aDzIjzncu_6hermes9utilities7logging6writer4fileNtB5_10FileWriter8shutdown
FNDA:2,_RNvXs3_NtNtNtNtCs35aDzIjzncu_6hermes9utilities7logging6writer4fileNtB5_10FileWriterNtNtCsaa59N1qzrfe_3std2io5Write5flush
FNDA:3,_RNvXs3_NtNtNtNtCs35aDzIjzncu_6hermes9utilities7logging6writer4fileNtB5_10FileWriterNtNtCsaa59N1qzrfe_3std2io5Write5write
FNF:19
FNH:11
DA:29,0
DA:30,0
DA:33,0
DA:34,0
DA:35,0
DA:37,0
DA:38,0
DA:39,0
DA:40,0
DA:41,0
DA:42,0
DA:43,0
DA:45,0
DA:46,0
DA:47,0
DA:48,0
DA:49,0
DA:50,0
DA:53,0
DA:55,0
DA:56,0
DA:61,0
DA:62,0
DA:63,0
DA:64,0
DA:65,0
DA:66,0
DA:67,0
DA:68,0
DA:79,0
DA:80,0
DA:81,0
DA:92,6
DA:93,6
DA:94,6
DA:96,6
DA:97,6
DA:98,6
DA:99,6
DA:100,6
DA:102,3
DA:103,3
DA:104,3
DA:106,2
DA:107,2
DA:108,2
DA:112,3
DA:113,3
DA:114,3
DA:115,0
DA:116,0
DA:117,0
DA:120,3
DA:122,2
DA:123,2
DA:124,2
DA:140,0
DA:141,0
DA:142,0
DA:152,1
DA:153,1
DA:154,1
DA:156,1
DA:157,1
DA:158,1
DA:161,1
DA:162,1
DA:163,1
DA:165,1
DA:168,1
DA:169,1
DA:170,1
DA:173,1
DA:174,1
DA:177,1
DA:180,1
DA:181,1
DA:182,1
DA:185,1
DA:186,1
DA:187,1
DA:189,1
DA:190,1
DA:191,1
DA:194,1
DA:195,1
DA:196,1
DA:198,1
DA:199,1
DA:202,1
DA:203,1
DA:206,1
DA:207,1
DA:208,1
DA:210,1
DA:213,1
DA:216,1
DA:219,1
DA:222,1
DA:223,1
DA:224,1
DA:227,1
DA:228,1
DA:229,1
DA:231,1
DA:234,1
DA:237,1
DA:240,1
DA:243,1
DA:244,1
DA:245,1
BRF:0
BRH:0
LF:113
LH:73
end_of_record
SF:/var/www/hermes/src/utilities/logging/writer/message.rs
FN:20,_RNvXNtNtNtNtCs35aDzIjzncu_6hermes9utilities7logging6writer7messageNtB2_13MessageWriterNtNtCsaa59N1qzrfe_3std2io5Write5flush
FN:28,_RNvXs_NtNtNtNtCs35aDzIjzncu_6hermes9utilities7logging6writer7messageNtB4_13MessageWriterNtNtNtCsgBiT4MaOqpq_18tracing_subscriber3fmt6writer10MakeWriter11make_writer
FN:9,_RNvXNtNtNtNtCs35aDzIjzncu_6hermes9utilities7logging6writer7messageNtB2_13MessageWriterNtNtCsaa59N1qzrfe_3std2io5Write5write
FN:13,_RNCNvXNtNtNtNtCs35aDzIjzncu_6hermes9utilities7logging6writer7messageNtB4_13MessageWriterNtNtCsaa59N1qzrfe_3std2io5Write5write0Bc_
FNDA:0,_RNvXNtNtNtNtCs35aDzIjzncu_6hermes9utilities7logging6writer7messageNtB2_13MessageWriterNtNtCsaa59N1qzrfe_3std2io5Write5flush
FNDA:0,_RNvXs_NtNtNtNtCs35aDzIjzncu_6hermes9utilities7logging6writer7messageNtB4_13MessageWriterNtNtNtCsgBiT4MaOqpq_18tracing_subscriber3fmt6writer10MakeWriter11make_writer
FNDA:0,_RNvXNtNtNtNtCs35aDzIjzncu_6hermes9utilities7logging6writer7messageNtB2_13MessageWriterNtNtCsaa59N1qzrfe_3std2io5Write5write
FNDA:0,_RNCNvXNtNtNtNtCs35aDzIjzncu_6hermes9utilities7logging6writer7messageNtB4_13MessageWriterNtNtCsaa59N1qzrfe_3std2io5Write5write0Bc_
FNF:4
FNH:0
DA:9,0
DA:10,0
DA:11,0
DA:12,0
DA:13,0
DA:14,0
DA:15,0
DA:17,0
DA:18,0
DA:20,0
DA:21,0
DA:22,0
DA:28,0
DA:29,0
DA:30,0
BRF:0
BRH:0
LF:17
LH:0
end_of_record
SF:/var/www/hermes/src/utilities/logging/writer/mod.rs
FN:28,_RNvXININtNtNtCs35aDzIjzncu_6hermes9utilities7logging6writer0pEINtB5_11MaybeWriterpENtNtCsaa59N1qzrfe_3std2io5Write5flushBb_
FN:60,_RNvXININtNtNtCs35aDzIjzncu_6hermes9utilities7logging6writers0_0pEINtB5_17LevelFilterWriterpENtNtCsaa59N1qzrfe_3std2io5Write5flushBb_
FN:81,_RNvXININtNtNtCs35aDzIjzncu_6hermes9utilities7logging6writers1_0pEINtB5_17LevelFilterWriterpENtNtNtCsgBiT4MaOqpq_18tracing_subscriber3fmt6writer10MakeWriter11make_writerBb_
FN:47,_RNvMs_NtNtNtCs35aDzIjzncu_6hermes9utilities7logging6writerINtB4_17LevelFilterWriterNtNtB4_12notification12NotifyWriterE3newBa_
FN:47,_RNvMs_NtNtNtCs35aDzIjzncu_6hermes9utilities7logging6writerINtB4_17LevelFilterWriterNtNtB4_4file10FileWriterE3newBa_
FN:47,_RNvMs_NtNtNtCs35aDzIjzncu_6hermes9utilities7logging6writerINtB4_17LevelFilterWriterNtNtB4_7message13MessageWriterE3newBa_
FN:21,_RNvXNtNtNtCs35aDzIjzncu_6hermes9utilities7logging6writerINtB2_11MaybeWriterINtB2_17LevelFilterWriterNtNtB2_12notification12NotifyWriterEENtNtCsaa59N1qzrfe_3std2io5Write5writeB8_
FN:21,_RNvXNtNtNtCs35aDzIjzncu_6hermes9utilities7logging6writerINtB2_11MaybeWriterINtB2_17LevelFilterWriterNtNtB2_4file10FileWriterEENtNtCsaa59N1qzrfe_3std2io5Write5writeB8_
FN:21,_RNvXNtNtNtCs35aDzIjzncu_6hermes9utilities7logging6writerINtB2_11MaybeWriterINtB2_17LevelFilterWriterNtNtB2_7message13MessageWriterEENtNtCsaa59N1qzrfe_3std2io5Write5writeB8_
FN:56,_RNvXs0_NtNtNtCs35aDzIjzncu_6hermes9utilities7logging6writerINtB5_17LevelFilterWriterNtNtB5_12notification12NotifyWriterENtNtCsaa59N1qzrfe_3std2io5Write5writeBb_
FN:56,_RNvXs0_NtNtNtCs35aDzIjzncu_6hermes9utilities7logging6writerINtB5_17LevelFilterWriterNtNtB5_4file10FileWriterENtNtCsaa59N1qzrfe_3std2io5Write5writeBb_
FN:56,_RNvXs0_NtNtNtCs35aDzIjzncu_6hermes9utilities7logging6writerINtB5_17LevelFilterWriterNtNtB5_7message13MessageWriterENtNtCsaa59N1qzrfe_3std2io5Write5writeBb_
FN:71,_RNvXs1_NtNtNtCs35aDzIjzncu_6hermes9utilities7logging6writerINtB5_17LevelFilterWriterNtNtB5_12notification12NotifyWriterENtNtNtCsgBiT4MaOqpq_18tracing_subscriber3fmt6writer10MakeWriter15make_writer_forBb_
FN:71,_RNvXs1_NtNtNtCs35aDzIjzncu_6hermes9utilities7logging6writerINtB5_17LevelFilterWriterNtNtB5_4file10FileWriterENtNtNtCsgBiT4MaOqpq_18tracing_subscriber3fmt6writer10MakeWriter15make_writer_forBb_
FN:71,_RNvXs1_NtNtNtCs35aDzIjzncu_6hermes9utilities7logging6writerINtB5_17LevelFilterWriterNtNtB5_7message13MessageWriterENtNtNtCsgBiT4MaOqpq_18tracing_subscriber3fmt6writer10MakeWriter15make_writer_forBb_
FN:94,_RNvYNtNtNtNtNtCs35aDzIjzncu_6hermes9utilities7logging6writer4file10FileWriterNtB6_8Filtered8filteredBc_
FN:94,_RNvYNtNtNtNtNtCs35aDzIjzncu_6hermes9utilities7logging6writer12notification12NotifyWriterNtB6_8Filtered8filteredBc_
FN:94,_RNvYNtNtNtNtNtCs35aDzIjzncu_6hermes9utilities7logging6writer7message13MessageWriterNtB6_8Filtered8filteredBc_
FNDA:0,_RNvXININtNtNtCs35aDzIjzncu_6hermes9utilities7logging6writer0pEINtB5_11MaybeWriterpENtNtCsaa59N1qzrfe_3std2io5Write5flushBb_
FNDA:0,_RNvXININtNtNtCs35aDzIjzncu_6hermes9utilities7logging6writers0_0pEINtB5_17LevelFilterWriterpENtNtCsaa59N1qzrfe_3std2io5Write5flushBb_
FNDA:0,_RNvXININtNtNtCs35aDzIjzncu_6hermes9utilities7logging6writers1_0pEINtB5_17LevelFilterWriterpENtNtNtCsgBiT4MaOqpq_18tracing_subscriber3fmt6writer10MakeWriter11make_writerBb_
FNDA:0,_RNvMs_NtNtNtCs35aDzIjzncu_6hermes9utilities7logging6writerINtB4_17LevelFilterWriterNtNtB4_12notification12NotifyWriterE3newBa_
FNDA:0,_RNvMs_NtNtNtCs35aDzIjzncu_6hermes9utilities7logging6writerINtB4_17LevelFilterWriterNtNtB4_4file10FileWriterE3newBa_
FNDA:0,_RNvMs_NtNtNtCs35aDzIjzncu_6hermes9utilities7logging6writerINtB4_17LevelFilterWriterNtNtB4_7message13MessageWriterE3newBa_
FNDA:0,_RNvXNtNtNtCs35aDzIjzncu_6hermes9utilities7logging6writerINtB2_11MaybeWriterINtB2_17LevelFilterWriterNtNtB2_12notification12NotifyWriterEENtNtCsaa59N1qzrfe_3std2io5Write5writeB8_
FNDA:0,_RNvXNtNtNtCs35aDzIjzncu_6hermes9utilities7logging6writerINtB2_11MaybeWriterINtB2_17LevelFilterWriterNtNtB2_4file10FileWriterEENtNtCsaa59N1qzrfe_3std2io5Write5writeB8_
FNDA:0,_RNvXNtNtNtCs35aDzIjzncu_6hermes9utilities7logging6writerINtB2_11MaybeWriterINtB2_17LevelFilterWriterNtNtB2_7message13MessageWriterEENtNtCsaa59N1qzrfe_3std2io5Write5writeB8_
FNDA:0,_RNvXs0_NtNtNtCs35aDzIjzncu_6hermes9utilities7logging6writerINtB5_17LevelFilterWriterNtNtB5_12notification12NotifyWriterENtNtCsaa59N1qzrfe_3std2io5Write5writeBb_
FNDA:0,_RNvXs0_NtNtNtCs35aDzIjzncu_6hermes9utilities7logging6writerINtB5_17LevelFilterWriterNtNtB5_4file10FileWriterENtNtCsaa59N1qzrfe_3std2io5Write5writeBb_
FNDA:0,_RNvXs0_NtNtNtCs35aDzIjzncu_6hermes9utilities7logging6writerINtB5_17LevelFilterWriterNtNtB5_7message13MessageWriterENtNtCsaa59N1qzrfe_3std2io5Write5writeBb_
FNDA:0,_RNvXs1_NtNtNtCs35aDzIjzncu_6hermes9utilities7logging6writerINtB5_17LevelFilterWriterNtNtB5_12notification12NotifyWriterENtNtNtCsgBiT4MaOqpq_18tracing_subscriber3fmt6writer10MakeWriter15make_writer_forBb_
FNDA:0,_RNvXs1_NtNtNtCs35aDzIjzncu_6hermes9utilities7logging6writerINtB5_17LevelFilterWriterNtNtB5_4file10FileWriterENtNtNtCsgBiT4MaOqpq_18tracing_subscriber3fmt6writer10MakeWriter15make_writer_forBb_
FNDA:0,_RNvXs1_NtNtNtCs35aDzIjzncu_6hermes9utilities7logging6writerINtB5_17LevelFilterWriterNtNtB5_7message13MessageWriterENtNtNtCsgBiT4MaOqpq_18tracing_subscriber3fmt6writer10MakeWriter15make_writer_forBb_
FNDA:0,_RNvYNtNtNtNtNtCs35aDzIjzncu_6hermes9utilities7logging6writer4file10FileWriterNtB6_8Filtered8filteredBc_
FNDA:0,_RNvYNtNtNtNtNtCs35aDzIjzncu_6hermes9utilities7logging6writer12notification12NotifyWriterNtB6_8Filtered8filteredBc_
FNDA:0,_RNvYNtNtNtNtNtCs35aDzIjzncu_6hermes9utilities7logging6writer7message13MessageWriterNtB6_8Filtered8filteredBc_
FNF:8
FNH:0
DA:21,0
DA:22,0
DA:23,0
DA:24,0
DA:26,0
DA:28,0
DA:29,0
DA:30,0
DA:31,0
DA:33,0
DA:47,0
DA:48,0
DA:49,0
DA:56,0
DA:57,0
DA:58,0
DA:60,0
DA:61,0
DA:62,0
DA:71,0
DA:72,0
DA:73,0
DA:74,0
DA:75,0
DA:77,0
DA:79,0
DA:81,0
DA:82,0
DA:83,0
DA:84,0
DA:85,0
DA:94,0
DA:95,0
DA:96,0
BRF:0
BRH:0
LF:34
LH:0
end_of_record
SF:/var/www/hermes/src/utilities/logging/writer/notification.rs
FN:40,_RNvXs1_NtNtNtNtCs35aDzIjzncu_6hermes9utilities7logging6writer12notificationNtB5_12NotifyWriterNtNtCsaa59N1qzrfe_3std2io5Write5flush
FN:48,_RNvXs2_NtNtNtNtCs35aDzIjzncu_6hermes9utilities7logging6writer12notificationNtB5_12NotifyWriterNtNtNtCsgBiT4MaOqpq_18tracing_subscriber3fmt6writer10MakeWriter11make_writer
FN:20,_RNvMs0_NtNtNtNtCs35aDzIjzncu_6hermes9utilities7logging6writer12notificationNtB5_12NotifyWriter3new
FN:29,_RNvXs1_NtNtNtNtCs35aDzIjzncu_6hermes9utilities7logging6writer12notificationNtB5_12NotifyWriterNtNtCsaa59N1qzrfe_3std2io5Write5write
FN:35,_RNCNvXs1_NtNtNtNtCs35aDzIjzncu_6hermes9utilities7logging6writer12notificationNtB7_12NotifyWriterNtNtCsaa59N1qzrfe_3std2io5Write5write0Bf_
FNDA:0,_RNvXs1_NtNtNtNtCs35aDzIjzncu_6hermes9utilities7logging6writer12notificationNtB5_12NotifyWriterNtNtCsaa59N1qzrfe_3std2io5Write5flush
FNDA:0,_RNvXs2_NtNtNtNtCs35aDzIjzncu_6hermes9utilities7logging6writer12notificationNtB5_12NotifyWriterNtNtNtCsgBiT4MaOqpq_18tracing_subscriber3fmt6writer10MakeWriter11make_writer
FNDA:0,_RNvMs0_NtNtNtNtCs35aDzIjzncu_6hermes9utilities7logging6writer12notificationNtB5_12NotifyWriter3new
FNDA:0,_RNvXs1_NtNtNtNtCs35aDzIjzncu_6hermes9utilities7logging6writer12notificationNtB5_12NotifyWriterNtNtCsaa59N1qzrfe_3std2io5Write5write
FNDA:0,_RNCNvXs1_NtNtNtNtCs35aDzIjzncu_6hermes9utilities7logging6writer12notificationNtB7_12NotifyWriterNtNtCsaa59N1qzrfe_3std2io5Write5write0Bf_
FNF:5
FNH:0
DA:20,0
DA:21,0
DA:22,0
DA:23,0
DA:24,0
DA:25,0
DA:29,0
DA:31,0
DA:33,0
DA:34,0
DA:35,0
DA:37,0
DA:38,0
DA:40,0
DA:41,0
DA:42,0
DA:48,0
DA:49,0
DA:50,0
BRF:0
BRH:0
LF:20
LH:0
end_of_record
SF:/var/www/hermes/src/utilities/nvim.rs
FN:13,_RINvMNtNtCs35aDzIjzncu_6hermes9utilities4nvimINtB3_13NvimMessengerNtCshDkj952tQNZ_4uuid4UuidE10initializeNCNvMNtNtB7_4nvim8requestsNtB1K_8Requests3new0uEB7_
FN:13,_RINvMNtNtCs35aDzIjzncu_6hermes9utilities4nvimINtB3_13NvimMessengerTNtNtCsauO83Ko6oyK_5alloc6string6StringNtNtCs2NGirYq1Gaa_10serde_json5value5ValueINtNtCs4kUJL3MZFFz_4core6option6OptionTNtNtNtNtB7_4nvim8requests7request9ResponderB13_EEEE10initializeNCINvMNtNtB7_3acp7handlerNtB45_7Handler3newNtB32_8RequestsE0uEB7_
FN:20,_RNCINvMNtNtCs35aDzIjzncu_6hermes9utilities4nvimINtB5_13NvimMessengerNtCshDkj952tQNZ_4uuid4UuidE10initializeNCNvMNtNtB9_4nvim8requestsNtB1M_8Requests3new0uE0B9_
FN:27,_RNCINvMNtNtCs35aDzIjzncu_6hermes9utilities4nvimINtB5_13NvimMessengerNtCshDkj952tQNZ_4uuid4UuidE10initializeNCNvMNtNtB9_4nvim8requestsNtB1M_8Requests3new0uEs_0B9_
FN:20,_RNCINvMNtNtCs35aDzIjzncu_6hermes9utilities4nvimINtB5_13NvimMessengerTNtNtCsauO83Ko6oyK_5alloc6string6StringNtNtCs2NGirYq1Gaa_10serde_json5value5ValueINtNtCs4kUJL3MZFFz_4core6option6OptionTNtNtNtNtB9_4nvim8requests7request9ResponderB15_EEEE10initializeNCINvMNtNtB9_3acp7handlerNtB47_7Handler3newNtB34_8RequestsE0uE0B9_
FN:27,_RNCINvMNtNtCs35aDzIjzncu_6hermes9utilities4nvimINtB5_13NvimMessengerTNtNtCsauO83Ko6oyK_5alloc6string6StringNtNtCs2NGirYq1Gaa_10serde_json5value5ValueINtNtCs4kUJL3MZFFz_4core6option6OptionTNtNtNtNtB9_4nvim8requests7request9ResponderB15_EEEE10initializeNCINvMNtNtB9_3acp7handlerNtB47_7Handler3newNtB34_8RequestsE0uEs_0B9_
FN:56,_RNCNCNvXs0_NtNtCs35aDzIjzncu_6hermes9utilities4nvimINtB9_13NvimMessengerTNtNtCsauO83Ko6oyK_5alloc6string6StringNtNtCs2NGirYq1Gaa_10serde_json5value5ValueINtNtCs4kUJL3MZFFz_4core6option6OptionTNtNtNtNtBd_4nvim8requests7request9ResponderB19_EEEEINtB9_14TransmitToNvimB18_E4send00Bd_
FN:59,_RNCNCNvXs0_NtNtCs35aDzIjzncu_6hermes9utilities4nvimINtB9_13NvimMessengerTNtNtCsauO83Ko6oyK_5alloc6string6StringNtNtCs2NGirYq1Gaa_10serde_json5value5ValueINtNtCs4kUJL3MZFFz_4core6option6OptionTNtNtNtNtBd_4nvim8requests7request9ResponderB19_EEEEINtB9_14TransmitToNvimB18_E4send0s_0Bd_
FN:46,_RNCNvXs0_NtNtCs35aDzIjzncu_6hermes9utilities4nvimINtB7_13NvimMessengerNtCshDkj952tQNZ_4uuid4UuidEINtB7_14TransmitToNvimB16_E13blocking_send0Bb_
FN:49,_RNCNvXs0_NtNtCs35aDzIjzncu_6hermes9utilities4nvimINtB7_13NvimMessengerNtCshDkj952tQNZ_4uuid4UuidEINtB7_14TransmitToNvimB16_E13blocking_sends_0Bb_
FN:43,_RNvXs0_NtNtCs35aDzIjzncu_6hermes9utilities4nvimINtB5_13NvimMessengerNtCshDkj952tQNZ_4uuid4UuidEINtB5_14TransmitToNvimB14_E13blocking_sendB9_
FN:52,_RNvXs0_NtNtCs35aDzIjzncu_6hermes9utilities4nvimINtB5_13NvimMessengerTNtNtCsauO83Ko6oyK_5alloc6string6StringNtNtCs2NGirYq1Gaa_10serde_json5value5ValueINtNtCs4kUJL3MZFFz_4core6option6OptionTNtNtNtNtB9_4nvim8requests7request9ResponderB15_EEEEINtB5_14TransmitToNvimB14_E4sendB9_
FNDA:0,_RINvMNtNtCs35aDzIjzncu_6hermes9utilities4nvimINtB3_13NvimMessengerNtCshDkj952tQNZ_4uuid4UuidE10initializeNCNvMNtNtB7_4nvim8requestsNtB1K_8Requests3new0uEB7_
FNDA:0,_RINvMNtNtCs35aDzIjzncu_6hermes9utilities4nvimINtB3_13NvimMessengerTNtNtCsauO83Ko6oyK_5alloc6string6StringNtNtCs2NGirYq1Gaa_10serde_json5value5ValueINtNtCs4kUJL3MZFFz_4core6option6OptionTNtNtNtNtB7_4nvim8requests7request9ResponderB13_EEEE10initializeNCINvMNtNtB7_3acp7handlerNtB45_7Handler3newNtB32_8RequestsE0uEB7_
FNDA:0,_RNCINvMNtNtCs35aDzIjzncu_6hermes9utilities4nvimINtB5_13NvimMessengerNtCshDkj952tQNZ_4uuid4UuidE10initializeNCNvMNtNtB9_4nvim8requestsNtB1M_8Requests3new0uE0B9_
FNDA:0,_RNCINvMNtNtCs35aDzIjzncu_6hermes9utilities4nvimINtB5_13NvimMessengerNtCshDkj952tQNZ_4uuid4UuidE10initializeNCNvMNtNtB9_4nvim8requestsNtB1M_8Requests3new0uEs_0B9_
FNDA:0,_RNCINvMNtNtCs35aDzIjzncu_6hermes9utilities4nvimINtB5_13NvimMessengerTNtNtCsauO83Ko6oyK_5alloc6string6StringNtNtCs2NGirYq1Gaa_10serde_json5value5ValueINtNtCs4kUJL3MZFFz_4core6option6OptionTNtNtNtNtB9_4nvim8requests7request9ResponderB15_EEEE10initializeNCINvMNtNtB9_3acp7handlerNtB47_7Handler3newNtB34_8RequestsE0uE0B9_
FNDA:0,_RNCINvMNtNtCs35aDzIjzncu_6hermes9utilities4nvimINtB5_13NvimMessengerTNtNtCsauO83Ko6oyK_5alloc6string6StringNtNtCs2NGirYq1Gaa_10serde_json5value5ValueINtNtCs4kUJL3MZFFz_4core6option6OptionTNtNtNtNtB9_4nvim8requests7request9ResponderB15_EEEE10initializeNCINvMNtNtB9_3acp7handlerNtB47_7Handler3newNtB34_8RequestsE0uEs_0B9_
FNDA:0,_RNCNCNvXs0_NtNtCs35aDzIjzncu_6hermes9utilities4nvimINtB9_13NvimMessengerTNtNtCsauO83Ko6oyK_5alloc6string6StringNtNtCs2NGirYq1Gaa_10serde_json5value5ValueINtNtCs4kUJL3MZFFz_4core6option6OptionTNtNtNtNtBd_4nvim8requests7request9ResponderB19_EEEEINtB9_14TransmitToNvimB18_E4send00Bd_
FNDA:0,_RNCNCNvXs0_NtNtCs35aDzIjzncu_6hermes9utilities4nvimINtB9_13NvimMessengerTNtNtCsauO83Ko6oyK_5alloc6string6StringNtNtCs2NGirYq1Gaa_10serde_json5value5ValueINtNtCs4kUJL3MZFFz_4core6option6OptionTNtNtNtNtBd_4nvim8requests7request9ResponderB19_EEEEINtB9_14TransmitToNvimB18_E4send0s_0Bd_
FNDA:0,_RNCNvXs0_NtNtCs35aDzIjzncu_6hermes9utilities4nvimINtB7_13NvimMessengerNtCshDkj952tQNZ_4uuid4UuidEINtB7_14TransmitToNvimB16_E13blocking_send0Bb_
FNDA:0,_RNCNvXs0_NtNtCs35aDzIjzncu_6hermes9utilities4nvimINtB7_13NvimMessengerNtCshDkj952tQNZ_4uuid4UuidEINtB7_14TransmitToNvimB16_E13blocking_sends_0Bb_
FNDA:0,_RNvXs0_NtNtCs35aDzIjzncu_6hermes9utilities4nvimINtB5_13NvimMessengerNtCshDkj952tQNZ_4uuid4UuidEINtB5_14TransmitToNvimB14_E13blocking_sendB9_
FNDA:0,_RNvXs0_NtNtCs35aDzIjzncu_6hermes9utilities4nvimINtB5_13NvimMessengerTNtNtCsauO83Ko6oyK_5alloc6string6StringNtNtCs2NGirYq1Gaa_10serde_json5value5ValueINtNtCs4kUJL3MZFFz_4core6option6OptionTNtNtNtNtB9_4nvim8requests7request9ResponderB15_EEEEINtB5_14TransmitToNvimB14_E4sendB9_
FNF:9
FNH:0
DA:13,0
DA:14,0
DA:15,0
DA:16,0
DA:17,0
DA:19,0
DA:20,0
DA:21,0
DA:22,0
DA:23,0
DA:24,0
DA:26,0
DA:27,0
DA:28,0
DA:29,0
DA:30,0
DA:31,0
DA:32,0
DA:43,0
DA:44,0
DA:45,0
DA:46,0
DA:47,0
DA:48,0
DA:49,0
DA:50,0
DA:52,0
DA:56,0
DA:59,0
DA:60,0
BRF:0
BRH:0
LF:34
LH:0
end_of_record
SF:/var/www/hermes/src/utilities/project.rs
FN:14,_RNCNCNCNCNCNvNtNtCs35aDzIjzncu_6hermes9utilities7project16get_project_roots_00000Bf_
FN:10,_RNCNCNCNCNvNtNtCs35aDzIjzncu_6hermes9utilities7project16get_project_roots_0000Bd_
FN:9,_RNCNCNCNvNtNtCs35aDzIjzncu_6hermes9utilities7project16get_project_roots_000Bb_
FN:8,_RNCNCNvNtNtCs35aDzIjzncu_6hermes9utilities7project16get_project_roots_00B9_
FN:5,_RNCNvNtNtCs35aDzIjzncu_6hermes9utilities7project16get_project_root0B7_
FN:6,_RNCNvNtNtCs35aDzIjzncu_6hermes9utilities7project16get_project_roots_0B7_
FN:46,_RNvNtNtNtCs35aDzIjzncu_6hermes9utilities7project22get_project_root_testss_32test_get_project_root_parent_dir
FN:35,_RNvNtNtNtCs35aDzIjzncu_6hermes9utilities7project22get_project_root_testss_33test_get_project_root_current_dir
FN:60,_RNvNtNtNtCs35aDzIjzncu_6hermes9utilities7project22get_project_root_testss_37test_get_project_root_grandparent_dir
FN:87,_RNvNtNtNtCs35aDzIjzncu_6hermes9utilities7project22get_project_root_testss_38test_get_project_root_multiple_markers
FN:76,_RNvNtNtNtCs35aDzIjzncu_6hermes9utilities7project22get_project_root_testss_49test_get_project_root_no_marker_returns_start_dir
FN:103,_RNvNtNtNtCs35aDzIjzncu_6hermes9utilities7project22get_project_root_testss_51test_get_project_root_handles_nonexistent_start_dir
FN:3,_RNvNtNtCs35aDzIjzncu_6hermes9utilities7project16get_project_root
FNDA:399,_RNCNCNCNCNCNvNtNtCs35aDzIjzncu_6hermes9utilities7project16get_project_roots_00000Bf_
FNDA:399,_RNCNCNCNCNvNtNtCs35aDzIjzncu_6hermes9utilities7project16get_project_roots_0000Bd_
FNDA:399,_RNCNCNCNvNtNtCs35aDzIjzncu_6hermes9utilities7project16get_project_roots_000Bb_
FNDA:14,_RNCNCNvNtNtCs35aDzIjzncu_6hermes9utilities7project16get_project_roots_00B9_
FNDA:8,_RNCNvNtNtCs35aDzIjzncu_6hermes9utilities7project16get_project_root0B7_
FNDA:15,_RNCNvNtNtCs35aDzIjzncu_6hermes9utilities7project16get_project_roots_0B7_
FNDA:1,_RNvNtNtNtCs35aDzIjzncu_6hermes9utilities7project22get_project_root_testss_32test_get_project_root_parent_dir
FNDA:1,_RNvNtNtNtCs35aDzIjzncu_6hermes9utilities7project22get_project_root_testss_33test_get_project_root_current_dir
FNDA:1,_RNvNtNtNtCs35aDzIjzncu_6hermes9utilities7project22get_project_root_testss_37test_get_project_root_grandparent_dir
FNDA:1,_RNvNtNtNtCs35aDzIjzncu_6hermes9utilities7project22get_project_root_testss_38test_get_project_root_multiple_markers
FNDA:1,_RNvNtNtNtCs35aDzIjzncu_6hermes9utilities7project22get_project_root_testss_49test_get_project_root_no_marker_returns_start_dir
FNDA:1,_RNvNtNtNtCs35aDzIjzncu_6hermes9utilities7project22get_project_root_testss_51test_get_project_root_handles_nonexistent_start_dir
FNDA:7,_RNvNtNtCs35aDzIjzncu_6hermes9utilities7project16get_project_root
FNF:13
FNH:13
DA:3,7
DA:4,7
DA:5,8
DA:6,15
DA:7,15
DA:8,15
DA:9,399
DA:10,399
DA:11,399
DA:12,399
DA:13,399
DA:14,399
DA:15,399
DA:16,399
DA:17,399
DA:18,399
DA:19,14
DA:20,15
DA:21,15
DA:22,7
DA:23,7
DA:35,1
DA:36,1
DA:37,1
DA:38,1
DA:39,1
DA:41,1
DA:42,1
DA:43,1
DA:46,1
DA:47,1
DA:48,1
DA:49,1
DA:50,1
DA:52,1
DA:53,1
DA:55,1
DA:56,1
DA:57,1
DA:60,1
DA:61,1
DA:62,1
DA:63,1
DA:64,1
DA:66,1
DA:67,1
DA:68,1
DA:69,1
DA:71,1
DA:72,1
DA:73,1
DA:76,1
DA:77,1
DA:78,1
DA:79,1
DA:80,1
DA:82,1
DA:83,1
DA:84,1
DA:87,1
DA:88,1
DA:89,1
DA:91,1
DA:92,1
DA:94,1
DA:95,1
DA:97,1
DA:98,1
DA:99,1
DA:100,1
DA:103,1
DA:104,1
DA:105,1
DA:106,1
DA:107,1
DA:109,1
DA:111,1
DA:112,1
DA:113,1
BRF:0
BRH:0
LF:85
LH:85
end_of_record
SF:/var/www/hermes/src/utilities/prompt.rs
FN:167,_RNvNtNtNtCs35aDzIjzncu_6hermes9utilities6prompt5testss_34test_get_permission_prompt_variety
FN:130,_RNvNtNtNtCs35aDzIjzncu_6hermes9utilities6prompt5testss_41test_get_permission_prompt_returns_string
FN:91,_RNvNtNtNtCs35aDzIjzncu_6hermes9utilities6prompt5testss_41test_get_random_element_selects_from_list
FN:111,_RNvNtNtNtCs35aDzIjzncu_6hermes9utilities6prompt5testss_41test_get_random_element_with_two_elements
FN:122,_RNvNtNtNtCs35aDzIjzncu_6hermes9utilities6prompt5testss_42test_get_random_element_empty_returns_none
FN:103,_RNvNtNtNtCs35aDzIjzncu_6hermes9utilities6prompt5testss_43test_get_random_element_with_single_element
FN:138,_RNvNtNtNtCs35aDzIjzncu_6hermes9utilities6prompt5testss_44test_get_permission_prompt_from_expected_set
FN:1,_RINvNtNtCs35aDzIjzncu_6hermes9utilities6prompt18get_random_elementReEB6_
FN:149,_RNCNvNtNtNtCs35aDzIjzncu_6hermes9utilities6prompt5testss_44test_get_permission_prompt_from_expected_set0B9_
FN:26,_RNvNtNtCs35aDzIjzncu_6hermes9utilities6prompt21get_permission_prompt
FNDA:1,_RNvNtNtNtCs35aDzIjzncu_6hermes9utilities6prompt5testss_34test_get_permission_prompt_variety
FNDA:1,_RNvNtNtNtCs35aDzIjzncu_6hermes9utilities6prompt5testss_41test_get_permission_prompt_returns_string
FNDA:1,_RNvNtNtNtCs35aDzIjzncu_6hermes9utilities6prompt5testss_41test_get_random_element_selects_from_list
FNDA:1,_RNvNtNtNtCs35aDzIjzncu_6hermes9utilities6prompt5testss_41test_get_random_element_with_two_elements
FNDA:1,_RNvNtNtNtCs35aDzIjzncu_6hermes9utilities6prompt5testss_42test_get_random_element_empty_returns_none
FNDA:1,_RNvNtNtNtCs35aDzIjzncu_6hermes9utilities6prompt5testss_43test_get_random_element_with_single_element
FNDA:1,_RNvNtNtNtCs35aDzIjzncu_6hermes9utilities6prompt5testss_44test_get_permission_prompt_from_expected_set
FNDA:16,_RINvNtNtCs35aDzIjzncu_6hermes9utilities6prompt18get_random_elementReEB6_
FNDA:1,_RNCNvNtNtNtCs35aDzIjzncu_6hermes9utilities6prompt5testss_44test_get_permission_prompt_from_expected_set0B9_
FNDA:12,_RNvNtNtCs35aDzIjzncu_6hermes9utilities6prompt21get_permission_prompt
FNF:10
FNH:10
DA:1,16
DA:5,16
DA:6,1
DA:7,15
DA:10,15
DA:11,15
DA:12,15
DA:13,15
DA:17,15
DA:18,15
DA:21,15
DA:23,15
DA:24,16
DA:26,12
DA:27,12
DA:29,12
DA:30,12
DA:31,12
DA:32,12
DA:33,12
DA:34,12
DA:35,12
DA:36,12
DA:37,12
DA:38,12
DA:39,12
DA:40,12
DA:41,12
DA:42,12
DA:43,12
DA:44,12
DA:45,12
DA:46,12
DA:47,12
DA:48,12
DA:49,12
DA:50,12
DA:51,12
DA:52,12
DA:53,12
DA:54,12
DA:55,12
DA:56,12
DA:57,12
DA:58,12
DA:59,12
DA:60,12
DA:61,12
DA:62,12
DA:63,12
DA:64,12
DA:65,12
DA:66,12
DA:67,12
DA:68,12
DA:69,12
DA:70,12
DA:71,12
DA:72,12
DA:73,12
DA:74,12
DA:75,12
DA:76,12
DA:77,12
DA:78,12
DA:79,12
DA:81,12
DA:82,12
DA:83,12
DA:84,12
DA:91,1
DA:92,1
DA:93,1
DA:96,1
DA:97,1
DA:100,1
DA:103,1
DA:104,1
DA:105,1
DA:107,1
DA:108,1
DA:111,1
DA:112,1
DA:113,1
DA:115,1
DA:116,1
DA:119,1
DA:122,1
DA:123,1
DA:124,1
DA:126,1
DA:127,1
DA:130,1
DA:131,1
DA:134,1
DA:135,1
DA:138,1
DA:139,1
DA:142,1
DA:143,1
DA:148,1
DA:149,1
DA:155,1
DA:156,1
DA:157,1
DA:158,1
DA:159,1
DA:160,1
DA:161,1
DA:163,1
DA:164,1
DA:167,1
DA:169,1
DA:170,10
DA:171,10
DA:172,10
DA:175,10
DA:176,10
DA:180,1
DA:181,1
DA:182,1
DA:184,0
DA:186,1
BRF:0
BRH:0
LF:124
LH:123
end_of_record
SF:/var/www/hermes/src/utilities/ui.rs
FN:9,_RINvNtNtCs35aDzIjzncu_6hermes9utilities2ui18show_permission_uiNCNvMs_NtNtNtB6_4nvim8requests7requestNtB15_7Request23ask_user_for_permission0EB6_
FN:18,_RNCINvNtNtCs35aDzIjzncu_6hermes9utilities2ui18show_permission_uiNCNvMs_NtNtNtB8_4nvim8requests7requestNtB17_7Request23ask_user_for_permission0E0B8_
FN:35,_RNCINvNtNtCs35aDzIjzncu_6hermes9utilities2ui18show_permission_uiNCNvMs_NtNtNtB8_4nvim8requests7requestNtB17_7Request23ask_user_for_permission0Es0_0B8_
FN:38,_RNCINvNtNtCs35aDzIjzncu_6hermes9utilities2ui18show_permission_uiNCNvMs_NtNtNtB8_4nvim8requests7requestNtB17_7Request23ask_user_for_permission0Es1_0B8_
FN:42,_RNCINvNtNtCs35aDzIjzncu_6hermes9utilities2ui18show_permission_uiNCNvMs_NtNtNtB8_4nvim8requests7requestNtB17_7Request23ask_user_for_permission0Es2_0B8_
FN:63,_RNCINvNtNtCs35aDzIjzncu_6hermes9utilities2ui18show_permission_uiNCNvMs_NtNtNtB8_4nvim8requests7requestNtB17_7Request23ask_user_for_permission0Es3_0B8_
FN:31,_RNCINvNtNtCs35aDzIjzncu_6hermes9utilities2ui18show_permission_uiNCNvMs_NtNtNtB8_4nvim8requests7requestNtB17_7Request23ask_user_for_permission0Es_0B8_
FNDA:0,_RINvNtNtCs35aDzIjzncu_6hermes9utilities2ui18show_permission_uiNCNvMs_NtNtNtB6_4nvim8requests7requestNtB15_7Request23ask_user_for_permission0EB6_
FNDA:0,_RNCINvNtNtCs35aDzIjzncu_6hermes9utilities2ui18show_permission_uiNCNvMs_NtNtNtB8_4nvim8requests7requestNtB17_7Request23ask_user_for_permission0E0B8_
FNDA:0,_RNCINvNtNtCs35aDzIjzncu_6hermes9utilities2ui18show_permission_uiNCNvMs_NtNtNtB8_4nvim8requests7requestNtB17_7Request23ask_user_for_permission0Es0_0B8_
FNDA:0,_RNCINvNtNtCs35aDzIjzncu_6hermes9utilities2ui18show_permission_uiNCNvMs_NtNtNtB8_4nvim8requests7requestNtB17_7Request23ask_user_for_permission0Es1_0B8_
FNDA:0,_RNCINvNtNtCs35aDzIjzncu_6hermes9utilities2ui18show_permission_uiNCNvMs_NtNtNtB8_4nvim8requests7requestNtB17_7Request23ask_user_for_permission0Es2_0B8_
FNDA:0,_RNCINvNtNtCs35aDzIjzncu_6hermes9utilities2ui18show_permission_uiNCNvMs_NtNtNtB8_4nvim8requests7requestNtB17_7Request23ask_user_for_permission0Es3_0B8_
FNDA:0,_RNCINvNtNtCs35aDzIjzncu_6hermes9utilities2ui18show_permission_uiNCNvMs_NtNtNtB8_4nvim8requests7requestNtB17_7Request23ask_user_for_permission0Es_0B8_
FNF:7
FNH:0
DA:9,0
DA:10,0
DA:11,0
DA:13,0
DA:16,0
DA:17,0
DA:18,0
DA:19,0
DA:20,0
DA:21,0
DA:22,0
DA:23,0
DA:25,0
DA:28,0
DA:29,0
DA:30,0
DA:31,0
DA:33,0
DA:34,0
DA:35,0
DA:37,0
DA:38,0
DA:39,0
DA:40,0
DA:41,0
DA:42,0
DA:45,0
DA:62,0
DA:63,0
DA:65,0
DA:66,0
BRF:0
BRH:0
LF:37
LH:0
end_of_record